
IIC.elf:     file format elf32-avr

Sections:
Idx Name          Size      VMA       LMA       File off  Algn
  0 .text         00002102  00000000  00000000  00000054  2**1
                  CONTENTS, ALLOC, LOAD, READONLY, CODE
  1 .stab         00001b84  00000000  00000000  00002158  2**2
                  CONTENTS, READONLY, DEBUGGING
  2 .stabstr      000006d7  00000000  00000000  00003cdc  2**0
                  CONTENTS, READONLY, DEBUGGING

Disassembly of section .text:

00000000 <__vectors>:
       0:	0c 94 2a 00 	jmp	0x54	; 0x54 <__ctors_end>
       4:	0c 94 34 00 	jmp	0x68	; 0x68 <__bad_interrupt>
       8:	0c 94 34 00 	jmp	0x68	; 0x68 <__bad_interrupt>
       c:	0c 94 34 00 	jmp	0x68	; 0x68 <__bad_interrupt>
      10:	0c 94 34 00 	jmp	0x68	; 0x68 <__bad_interrupt>
      14:	0c 94 34 00 	jmp	0x68	; 0x68 <__bad_interrupt>
      18:	0c 94 34 00 	jmp	0x68	; 0x68 <__bad_interrupt>
      1c:	0c 94 34 00 	jmp	0x68	; 0x68 <__bad_interrupt>
      20:	0c 94 34 00 	jmp	0x68	; 0x68 <__bad_interrupt>
      24:	0c 94 34 00 	jmp	0x68	; 0x68 <__bad_interrupt>
      28:	0c 94 34 00 	jmp	0x68	; 0x68 <__bad_interrupt>
      2c:	0c 94 34 00 	jmp	0x68	; 0x68 <__bad_interrupt>
      30:	0c 94 34 00 	jmp	0x68	; 0x68 <__bad_interrupt>
      34:	0c 94 34 00 	jmp	0x68	; 0x68 <__bad_interrupt>
      38:	0c 94 34 00 	jmp	0x68	; 0x68 <__bad_interrupt>
      3c:	0c 94 34 00 	jmp	0x68	; 0x68 <__bad_interrupt>
      40:	0c 94 34 00 	jmp	0x68	; 0x68 <__bad_interrupt>
      44:	0c 94 34 00 	jmp	0x68	; 0x68 <__bad_interrupt>
      48:	0c 94 34 00 	jmp	0x68	; 0x68 <__bad_interrupt>
      4c:	0c 94 34 00 	jmp	0x68	; 0x68 <__bad_interrupt>
      50:	0c 94 34 00 	jmp	0x68	; 0x68 <__bad_interrupt>

00000054 <__ctors_end>:
      54:	11 24       	eor	r1, r1
      56:	1f be       	out	0x3f, r1	; 63
      58:	cf e5       	ldi	r28, 0x5F	; 95
      5a:	d8 e0       	ldi	r29, 0x08	; 8
      5c:	de bf       	out	0x3e, r29	; 62
      5e:	cd bf       	out	0x3d, r28	; 61
      60:	0e 94 64 10 	call	0x20c8	; 0x20c8 <main>
      64:	0c 94 7f 10 	jmp	0x20fe	; 0x20fe <_exit>

00000068 <__bad_interrupt>:
      68:	0c 94 00 00 	jmp	0	; 0x0 <__vectors>

0000006c <IIC_enuINIT>:
#include"IIC_prive.h"
#include"IIC_Config.h"


ES_t IIC_enuINIT(void)
{
      6c:	df 93       	push	r29
      6e:	cf 93       	push	r28
      70:	0f 92       	push	r0
      72:	cd b7       	in	r28, 0x3d	; 61
      74:	de b7       	in	r29, 0x3e	; 62
	ES_t Local_enuErrorState = ES_NOK;
      76:	81 e0       	ldi	r24, 0x01	; 1
      78:	89 83       	std	Y+1, r24	; 0x01

#if IIC_MODE == ICC_MASTER
	TWBR = (u8)BITRATE(IIC_CLOCK_SPEED);
      7a:	e0 e2       	ldi	r30, 0x20	; 32
      7c:	f0 e0       	ldi	r31, 0x00	; 0
      7e:	80 e2       	ldi	r24, 0x20	; 32
      80:	80 83       	st	Z, r24
	#if IIC_PRES == 1
		TWSR &= ~(MASK_NUM<<TWPS0);
      82:	a1 e2       	ldi	r26, 0x21	; 33
      84:	b0 e0       	ldi	r27, 0x00	; 0
      86:	e1 e2       	ldi	r30, 0x21	; 33
      88:	f0 e0       	ldi	r31, 0x00	; 0
      8a:	80 81       	ld	r24, Z
      8c:	8e 7f       	andi	r24, 0xFE	; 254
      8e:	8c 93       	st	X, r24
		TWSR &= ~(MASK_NUM<<TWPS1);
      90:	a1 e2       	ldi	r26, 0x21	; 33
      92:	b0 e0       	ldi	r27, 0x00	; 0
      94:	e1 e2       	ldi	r30, 0x21	; 33
      96:	f0 e0       	ldi	r31, 0x00	; 0
      98:	80 81       	ld	r24, Z
      9a:	8d 7f       	andi	r24, 0xFD	; 253
      9c:	8c 93       	st	X, r24
		TWSR |= (MASK_NUM<<TWPS1);
	#else "Wrong PRESACLAR"

	#endif

	TWAR &= ~(MASK_NUM<<TWGCE);
      9e:	a2 e2       	ldi	r26, 0x22	; 34
      a0:	b0 e0       	ldi	r27, 0x00	; 0
      a2:	e2 e2       	ldi	r30, 0x22	; 34
      a4:	f0 e0       	ldi	r31, 0x00	; 0
      a6:	80 81       	ld	r24, Z
      a8:	8e 7f       	andi	r24, 0xFE	; 254
      aa:	8c 93       	st	X, r24
					TWAR = (IIC_NODE_ADDRESS<<MASK_NUM) | IIC_RECOG_GENERALCALL;
      ac:	e2 e2       	ldi	r30, 0x22	; 34
      ae:	f0 e0       	ldi	r31, 0x00	; 0
      b0:	8a e0       	ldi	r24, 0x0A	; 10
      b2:	80 83       	st	Z, r24

			TWCR |= (MASK_NUM<<TWCR);//clear flag
      b4:	a6 e5       	ldi	r26, 0x56	; 86
      b6:	b0 e0       	ldi	r27, 0x00	; 0
      b8:	e6 e5       	ldi	r30, 0x56	; 86
      ba:	f0 e0       	ldi	r31, 0x00	; 0
      bc:	80 81       	ld	r24, Z
      be:	48 2f       	mov	r20, r24
      c0:	e6 e5       	ldi	r30, 0x56	; 86
      c2:	f0 e0       	ldi	r31, 0x00	; 0
      c4:	80 81       	ld	r24, Z
      c6:	28 2f       	mov	r18, r24
      c8:	30 e0       	ldi	r19, 0x00	; 0
      ca:	81 e0       	ldi	r24, 0x01	; 1
      cc:	90 e0       	ldi	r25, 0x00	; 0
      ce:	02 c0       	rjmp	.+4      	; 0xd4 <IIC_enuINIT+0x68>
      d0:	88 0f       	add	r24, r24
      d2:	99 1f       	adc	r25, r25
      d4:	2a 95       	dec	r18
      d6:	e2 f7       	brpl	.-8      	; 0xd0 <IIC_enuINIT+0x64>
      d8:	84 2b       	or	r24, r20
      da:	8c 93       	st	X, r24

			TWCR |= (MASK_NUM<<TWEN);//enable IIC
      dc:	a6 e5       	ldi	r26, 0x56	; 86
      de:	b0 e0       	ldi	r27, 0x00	; 0
      e0:	e6 e5       	ldi	r30, 0x56	; 86
      e2:	f0 e0       	ldi	r31, 0x00	; 0
      e4:	80 81       	ld	r24, Z
      e6:	84 60       	ori	r24, 0x04	; 4
      e8:	8c 93       	st	X, r24
			TWCR |= (MASK_NUM<<TWEA);//enable Aknowledge
      ea:	a6 e5       	ldi	r26, 0x56	; 86
      ec:	b0 e0       	ldi	r27, 0x00	; 0
      ee:	e6 e5       	ldi	r30, 0x56	; 86
      f0:	f0 e0       	ldi	r31, 0x00	; 0
      f2:	80 81       	ld	r24, Z
      f4:	80 64       	ori	r24, 0x40	; 64
      f6:	8c 93       	st	X, r24
		TWCR |= (MASK_NUM<<TWEN);//enable IIC


#endif

		TWAR &= ~(MASK_NUM<<TWGCE);
      f8:	a2 e2       	ldi	r26, 0x22	; 34
      fa:	b0 e0       	ldi	r27, 0x00	; 0
      fc:	e2 e2       	ldi	r30, 0x22	; 34
      fe:	f0 e0       	ldi	r31, 0x00	; 0
     100:	80 81       	ld	r24, Z
     102:	8e 7f       	andi	r24, 0xFE	; 254
     104:	8c 93       	st	X, r24
				TWAR = (IIC_NODE_ADDRESS<<MASK_NUM) | IIC_RECOG_GENERALCALL;
     106:	e2 e2       	ldi	r30, 0x22	; 34
     108:	f0 e0       	ldi	r31, 0x00	; 0
     10a:	8a e0       	ldi	r24, 0x0A	; 10
     10c:	80 83       	st	Z, r24

				TWCR |= (MASK_NUM<<TWCR);//clear flag
     10e:	a6 e5       	ldi	r26, 0x56	; 86
     110:	b0 e0       	ldi	r27, 0x00	; 0
     112:	e6 e5       	ldi	r30, 0x56	; 86
     114:	f0 e0       	ldi	r31, 0x00	; 0
     116:	80 81       	ld	r24, Z
     118:	48 2f       	mov	r20, r24
     11a:	e6 e5       	ldi	r30, 0x56	; 86
     11c:	f0 e0       	ldi	r31, 0x00	; 0
     11e:	80 81       	ld	r24, Z
     120:	28 2f       	mov	r18, r24
     122:	30 e0       	ldi	r19, 0x00	; 0
     124:	81 e0       	ldi	r24, 0x01	; 1
     126:	90 e0       	ldi	r25, 0x00	; 0
     128:	02 2e       	mov	r0, r18
     12a:	02 c0       	rjmp	.+4      	; 0x130 <IIC_enuINIT+0xc4>
     12c:	88 0f       	add	r24, r24
     12e:	99 1f       	adc	r25, r25
     130:	0a 94       	dec	r0
     132:	e2 f7       	brpl	.-8      	; 0x12c <IIC_enuINIT+0xc0>
     134:	84 2b       	or	r24, r20
     136:	8c 93       	st	X, r24

				TWCR |= (MASK_NUM<<TWEN);//enable IIC
     138:	a6 e5       	ldi	r26, 0x56	; 86
     13a:	b0 e0       	ldi	r27, 0x00	; 0
     13c:	e6 e5       	ldi	r30, 0x56	; 86
     13e:	f0 e0       	ldi	r31, 0x00	; 0
     140:	80 81       	ld	r24, Z
     142:	84 60       	ori	r24, 0x04	; 4
     144:	8c 93       	st	X, r24
				TWCR |= (MASK_NUM<<TWEA);//enable Aknowledge
     146:	a6 e5       	ldi	r26, 0x56	; 86
     148:	b0 e0       	ldi	r27, 0x00	; 0
     14a:	e6 e5       	ldi	r30, 0x56	; 86
     14c:	f0 e0       	ldi	r31, 0x00	; 0
     14e:	80 81       	ld	r24, Z
     150:	80 64       	ori	r24, 0x40	; 64
     152:	8c 93       	st	X, r24

	return Local_enuErrorState;
     154:	89 81       	ldd	r24, Y+1	; 0x01
}
     156:	0f 90       	pop	r0
     158:	cf 91       	pop	r28
     15a:	df 91       	pop	r29
     15c:	08 95       	ret

0000015e <IIC_enuStartCondition>:

ES_t IIC_enuStartCondition(void)
{
     15e:	df 93       	push	r29
     160:	cf 93       	push	r28
     162:	0f 92       	push	r0
     164:	cd b7       	in	r28, 0x3d	; 61
     166:	de b7       	in	r29, 0x3e	; 62
	ES_t Local_enuErrorState = ES_NOK;
     168:	81 e0       	ldi	r24, 0x01	; 1
     16a:	89 83       	std	Y+1, r24	; 0x01

	TWCR |=(MASK_NUM<<TWSTA);
     16c:	a6 e5       	ldi	r26, 0x56	; 86
     16e:	b0 e0       	ldi	r27, 0x00	; 0
     170:	e6 e5       	ldi	r30, 0x56	; 86
     172:	f0 e0       	ldi	r31, 0x00	; 0
     174:	80 81       	ld	r24, Z
     176:	80 62       	ori	r24, 0x20	; 32
     178:	8c 93       	st	X, r24
	TWCR |= (MASK_NUM<<TWINT);//clear flag
     17a:	a6 e5       	ldi	r26, 0x56	; 86
     17c:	b0 e0       	ldi	r27, 0x00	; 0
     17e:	e6 e5       	ldi	r30, 0x56	; 86
     180:	f0 e0       	ldi	r31, 0x00	; 0
     182:	80 81       	ld	r24, Z
     184:	80 68       	ori	r24, 0x80	; 128
     186:	8c 93       	st	X, r24
	while(! ((TWCR>>TWINT) & 1) );
     188:	e6 e5       	ldi	r30, 0x56	; 86
     18a:	f0 e0       	ldi	r31, 0x00	; 0
     18c:	80 81       	ld	r24, Z
     18e:	88 23       	and	r24, r24
     190:	dc f7       	brge	.-10     	; 0x188 <IIC_enuStartCondition+0x2a>

	if((TWSR & 0xF8) == 0x08)
     192:	e1 e2       	ldi	r30, 0x21	; 33
     194:	f0 e0       	ldi	r31, 0x00	; 0
     196:	80 81       	ld	r24, Z
     198:	88 2f       	mov	r24, r24
     19a:	90 e0       	ldi	r25, 0x00	; 0
     19c:	88 7f       	andi	r24, 0xF8	; 248
     19e:	90 70       	andi	r25, 0x00	; 0
     1a0:	88 30       	cpi	r24, 0x08	; 8
     1a2:	91 05       	cpc	r25, r1
     1a4:	09 f4       	brne	.+2      	; 0x1a8 <IIC_enuStartCondition+0x4a>
		Local_enuErrorState = ES_OK;
     1a6:	19 82       	std	Y+1, r1	; 0x01


	return Local_enuErrorState;
     1a8:	89 81       	ldd	r24, Y+1	; 0x01
}
     1aa:	0f 90       	pop	r0
     1ac:	cf 91       	pop	r28
     1ae:	df 91       	pop	r29
     1b0:	08 95       	ret

000001b2 <IIC_enuRepeatedStartCondition>:

ES_t IIC_enuRepeatedStartCondition(void)
{
     1b2:	df 93       	push	r29
     1b4:	cf 93       	push	r28
     1b6:	0f 92       	push	r0
     1b8:	cd b7       	in	r28, 0x3d	; 61
     1ba:	de b7       	in	r29, 0x3e	; 62
	ES_t Local_enuErrorState = ES_NOK;
     1bc:	81 e0       	ldi	r24, 0x01	; 1
     1be:	89 83       	std	Y+1, r24	; 0x01

	TWCR |=(MASK_NUM<<TWSTA);
     1c0:	a6 e5       	ldi	r26, 0x56	; 86
     1c2:	b0 e0       	ldi	r27, 0x00	; 0
     1c4:	e6 e5       	ldi	r30, 0x56	; 86
     1c6:	f0 e0       	ldi	r31, 0x00	; 0
     1c8:	80 81       	ld	r24, Z
     1ca:	80 62       	ori	r24, 0x20	; 32
     1cc:	8c 93       	st	X, r24
		TWCR |= (MASK_NUM<<TWINT);//clear flag
     1ce:	a6 e5       	ldi	r26, 0x56	; 86
     1d0:	b0 e0       	ldi	r27, 0x00	; 0
     1d2:	e6 e5       	ldi	r30, 0x56	; 86
     1d4:	f0 e0       	ldi	r31, 0x00	; 0
     1d6:	80 81       	ld	r24, Z
     1d8:	80 68       	ori	r24, 0x80	; 128
     1da:	8c 93       	st	X, r24
		while(! ((TWCR>>TWINT) & 1) );
     1dc:	e6 e5       	ldi	r30, 0x56	; 86
     1de:	f0 e0       	ldi	r31, 0x00	; 0
     1e0:	80 81       	ld	r24, Z
     1e2:	88 23       	and	r24, r24
     1e4:	dc f7       	brge	.-10     	; 0x1dc <IIC_enuRepeatedStartCondition+0x2a>

		if((TWSR & 0xF8) == 0x10)
     1e6:	e1 e2       	ldi	r30, 0x21	; 33
     1e8:	f0 e0       	ldi	r31, 0x00	; 0
     1ea:	80 81       	ld	r24, Z
     1ec:	88 2f       	mov	r24, r24
     1ee:	90 e0       	ldi	r25, 0x00	; 0
     1f0:	88 7f       	andi	r24, 0xF8	; 248
     1f2:	90 70       	andi	r25, 0x00	; 0
     1f4:	80 31       	cpi	r24, 0x10	; 16
     1f6:	91 05       	cpc	r25, r1
     1f8:	09 f4       	brne	.+2      	; 0x1fc <IIC_enuRepeatedStartCondition+0x4a>
			Local_enuErrorState = ES_OK;
     1fa:	19 82       	std	Y+1, r1	; 0x01

	return Local_enuErrorState;
     1fc:	89 81       	ldd	r24, Y+1	; 0x01
}
     1fe:	0f 90       	pop	r0
     200:	cf 91       	pop	r28
     202:	df 91       	pop	r29
     204:	08 95       	ret

00000206 <IIC_enuStopCondition>:

ES_t IIC_enuStopCondition(void)
{
     206:	df 93       	push	r29
     208:	cf 93       	push	r28
     20a:	0f 92       	push	r0
     20c:	cd b7       	in	r28, 0x3d	; 61
     20e:	de b7       	in	r29, 0x3e	; 62
	ES_t Local_enuErrorState = ES_NOK;
     210:	81 e0       	ldi	r24, 0x01	; 1
     212:	89 83       	std	Y+1, r24	; 0x01

	TWCR |= (MASK_NUM<<TWINT);//clear flag
     214:	a6 e5       	ldi	r26, 0x56	; 86
     216:	b0 e0       	ldi	r27, 0x00	; 0
     218:	e6 e5       	ldi	r30, 0x56	; 86
     21a:	f0 e0       	ldi	r31, 0x00	; 0
     21c:	80 81       	ld	r24, Z
     21e:	80 68       	ori	r24, 0x80	; 128
     220:	8c 93       	st	X, r24
	TWCR |= (MASK_NUM<<TWSTO);
     222:	a6 e5       	ldi	r26, 0x56	; 86
     224:	b0 e0       	ldi	r27, 0x00	; 0
     226:	e6 e5       	ldi	r30, 0x56	; 86
     228:	f0 e0       	ldi	r31, 0x00	; 0
     22a:	80 81       	ld	r24, Z
     22c:	80 61       	ori	r24, 0x10	; 16
     22e:	8c 93       	st	X, r24

	TWCR &= ~(MASK_NUM<< TWSTA);// clear start condition
     230:	a6 e5       	ldi	r26, 0x56	; 86
     232:	b0 e0       	ldi	r27, 0x00	; 0
     234:	e6 e5       	ldi	r30, 0x56	; 86
     236:	f0 e0       	ldi	r31, 0x00	; 0
     238:	80 81       	ld	r24, Z
     23a:	8f 7d       	andi	r24, 0xDF	; 223
     23c:	8c 93       	st	X, r24


	return Local_enuErrorState;
     23e:	89 81       	ldd	r24, Y+1	; 0x01
}
     240:	0f 90       	pop	r0
     242:	cf 91       	pop	r28
     244:	df 91       	pop	r29
     246:	08 95       	ret

00000248 <IIC_enuWriteSlaveAddress>:

ES_t IIC_enuWriteSlaveAddress(u8 Copy_u8SlaveAddress, u8 Copy_u8Operation)
{
     248:	df 93       	push	r29
     24a:	cf 93       	push	r28
     24c:	00 d0       	rcall	.+0      	; 0x24e <IIC_enuWriteSlaveAddress+0x6>
     24e:	0f 92       	push	r0
     250:	cd b7       	in	r28, 0x3d	; 61
     252:	de b7       	in	r29, 0x3e	; 62
     254:	8a 83       	std	Y+2, r24	; 0x02
     256:	6b 83       	std	Y+3, r22	; 0x03
	ES_t Local_enuErrorState = ES_NOK;
     258:	81 e0       	ldi	r24, 0x01	; 1
     25a:	89 83       	std	Y+1, r24	; 0x01

	TWDR = ( (Copy_u8SlaveAddress << 1) | Copy_u8Operation);
     25c:	e3 e2       	ldi	r30, 0x23	; 35
     25e:	f0 e0       	ldi	r31, 0x00	; 0
     260:	8a 81       	ldd	r24, Y+2	; 0x02
     262:	88 2f       	mov	r24, r24
     264:	90 e0       	ldi	r25, 0x00	; 0
     266:	88 0f       	add	r24, r24
     268:	99 1f       	adc	r25, r25
     26a:	98 2f       	mov	r25, r24
     26c:	8b 81       	ldd	r24, Y+3	; 0x03
     26e:	89 2b       	or	r24, r25
     270:	80 83       	st	Z, r24

	TWCR &= ~(MASK_NUM<< TWSTA);// clear start condition
     272:	a6 e5       	ldi	r26, 0x56	; 86
     274:	b0 e0       	ldi	r27, 0x00	; 0
     276:	e6 e5       	ldi	r30, 0x56	; 86
     278:	f0 e0       	ldi	r31, 0x00	; 0
     27a:	80 81       	ld	r24, Z
     27c:	8f 7d       	andi	r24, 0xDF	; 223
     27e:	8c 93       	st	X, r24

	TWCR |= (MASK_NUM<<TWINT);//clear flag
     280:	a6 e5       	ldi	r26, 0x56	; 86
     282:	b0 e0       	ldi	r27, 0x00	; 0
     284:	e6 e5       	ldi	r30, 0x56	; 86
     286:	f0 e0       	ldi	r31, 0x00	; 0
     288:	80 81       	ld	r24, Z
     28a:	80 68       	ori	r24, 0x80	; 128
     28c:	8c 93       	st	X, r24

	while(! ((TWCR>>TWINT) & 1) );
     28e:	e6 e5       	ldi	r30, 0x56	; 86
     290:	f0 e0       	ldi	r31, 0x00	; 0
     292:	80 81       	ld	r24, Z
     294:	88 23       	and	r24, r24
     296:	dc f7       	brge	.-10     	; 0x28e <IIC_enuWriteSlaveAddress+0x46>

	if( (TWSR & 0xF8) == 0x18  && Copy_u8Operation == WRITE)
     298:	e1 e2       	ldi	r30, 0x21	; 33
     29a:	f0 e0       	ldi	r31, 0x00	; 0
     29c:	80 81       	ld	r24, Z
     29e:	88 2f       	mov	r24, r24
     2a0:	90 e0       	ldi	r25, 0x00	; 0
     2a2:	88 7f       	andi	r24, 0xF8	; 248
     2a4:	90 70       	andi	r25, 0x00	; 0
     2a6:	88 31       	cpi	r24, 0x18	; 24
     2a8:	91 05       	cpc	r25, r1
     2aa:	29 f4       	brne	.+10     	; 0x2b6 <IIC_enuWriteSlaveAddress+0x6e>
     2ac:	8b 81       	ldd	r24, Y+3	; 0x03
     2ae:	88 23       	and	r24, r24
     2b0:	11 f4       	brne	.+4      	; 0x2b6 <IIC_enuWriteSlaveAddress+0x6e>
		Local_enuErrorState = ES_OK;
     2b2:	19 82       	std	Y+1, r1	; 0x01
     2b4:	0e c0       	rjmp	.+28     	; 0x2d2 <IIC_enuWriteSlaveAddress+0x8a>
	else if( (TWSR & 0xF8) == 0x40  && Copy_u8Operation == READ)
     2b6:	e1 e2       	ldi	r30, 0x21	; 33
     2b8:	f0 e0       	ldi	r31, 0x00	; 0
     2ba:	80 81       	ld	r24, Z
     2bc:	88 2f       	mov	r24, r24
     2be:	90 e0       	ldi	r25, 0x00	; 0
     2c0:	88 7f       	andi	r24, 0xF8	; 248
     2c2:	90 70       	andi	r25, 0x00	; 0
     2c4:	80 34       	cpi	r24, 0x40	; 64
     2c6:	91 05       	cpc	r25, r1
     2c8:	21 f4       	brne	.+8      	; 0x2d2 <IIC_enuWriteSlaveAddress+0x8a>
     2ca:	8b 81       	ldd	r24, Y+3	; 0x03
     2cc:	81 30       	cpi	r24, 0x01	; 1
     2ce:	09 f4       	brne	.+2      	; 0x2d2 <IIC_enuWriteSlaveAddress+0x8a>
		Local_enuErrorState = ES_OK;
     2d0:	19 82       	std	Y+1, r1	; 0x01

	return Local_enuErrorState;
     2d2:	89 81       	ldd	r24, Y+1	; 0x01
}
     2d4:	0f 90       	pop	r0
     2d6:	0f 90       	pop	r0
     2d8:	0f 90       	pop	r0
     2da:	cf 91       	pop	r28
     2dc:	df 91       	pop	r29
     2de:	08 95       	ret

000002e0 <IIC_enuCheckMyAddress>:

ES_t IIC_enuCheckMyAddress(void)
{
     2e0:	df 93       	push	r29
     2e2:	cf 93       	push	r28
     2e4:	0f 92       	push	r0
     2e6:	cd b7       	in	r28, 0x3d	; 61
     2e8:	de b7       	in	r29, 0x3e	; 62
	ES_t Local_enuErrorState = ES_NOK;
     2ea:	81 e0       	ldi	r24, 0x01	; 1
     2ec:	89 83       	std	Y+1, r24	; 0x01


	TWCR |=(MASK_NUM<<TWEA);// enable acknowledge
     2ee:	a6 e5       	ldi	r26, 0x56	; 86
     2f0:	b0 e0       	ldi	r27, 0x00	; 0
     2f2:	e6 e5       	ldi	r30, 0x56	; 86
     2f4:	f0 e0       	ldi	r31, 0x00	; 0
     2f6:	80 81       	ld	r24, Z
     2f8:	80 64       	ori	r24, 0x40	; 64
     2fa:	8c 93       	st	X, r24

	TWCR |= (MASK_NUM<<TWINT);//clear flag
     2fc:	a6 e5       	ldi	r26, 0x56	; 86
     2fe:	b0 e0       	ldi	r27, 0x00	; 0
     300:	e6 e5       	ldi	r30, 0x56	; 86
     302:	f0 e0       	ldi	r31, 0x00	; 0
     304:	80 81       	ld	r24, Z
     306:	80 68       	ori	r24, 0x80	; 128
     308:	8c 93       	st	X, r24
	while(! ((TWCR>>TWINT) & 1) );
     30a:	e6 e5       	ldi	r30, 0x56	; 86
     30c:	f0 e0       	ldi	r31, 0x00	; 0
     30e:	80 81       	ld	r24, Z
     310:	88 23       	and	r24, r24
     312:	dc f7       	brge	.-10     	; 0x30a <IIC_enuCheckMyAddress+0x2a>
	if ((TWSR & 0xF8) == 0x60)
     314:	e1 e2       	ldi	r30, 0x21	; 33
     316:	f0 e0       	ldi	r31, 0x00	; 0
     318:	80 81       	ld	r24, Z
     31a:	88 2f       	mov	r24, r24
     31c:	90 e0       	ldi	r25, 0x00	; 0
     31e:	88 7f       	andi	r24, 0xF8	; 248
     320:	90 70       	andi	r25, 0x00	; 0
     322:	80 36       	cpi	r24, 0x60	; 96
     324:	91 05       	cpc	r25, r1
     326:	11 f4       	brne	.+4      	; 0x32c <IIC_enuCheckMyAddress+0x4c>
		Local_enuErrorState = ES_OK;
     328:	19 82       	std	Y+1, r1	; 0x01
     32a:	0b c0       	rjmp	.+22     	; 0x342 <IIC_enuCheckMyAddress+0x62>
	else if((TWSR & 0xF8) == 0xA8)
     32c:	e1 e2       	ldi	r30, 0x21	; 33
     32e:	f0 e0       	ldi	r31, 0x00	; 0
     330:	80 81       	ld	r24, Z
     332:	88 2f       	mov	r24, r24
     334:	90 e0       	ldi	r25, 0x00	; 0
     336:	88 7f       	andi	r24, 0xF8	; 248
     338:	90 70       	andi	r25, 0x00	; 0
     33a:	88 3a       	cpi	r24, 0xA8	; 168
     33c:	91 05       	cpc	r25, r1
     33e:	09 f4       	brne	.+2      	; 0x342 <IIC_enuCheckMyAddress+0x62>
		Local_enuErrorState = ES_OK;
     340:	19 82       	std	Y+1, r1	; 0x01

	return Local_enuErrorState;
     342:	89 81       	ldd	r24, Y+1	; 0x01
}
     344:	0f 90       	pop	r0
     346:	cf 91       	pop	r28
     348:	df 91       	pop	r29
     34a:	08 95       	ret

0000034c <IIC_enuWriteData>:

ES_t IIC_enuWriteData(u8 Copy_u8Data)
{
     34c:	df 93       	push	r29
     34e:	cf 93       	push	r28
     350:	00 d0       	rcall	.+0      	; 0x352 <IIC_enuWriteData+0x6>
     352:	cd b7       	in	r28, 0x3d	; 61
     354:	de b7       	in	r29, 0x3e	; 62
     356:	8a 83       	std	Y+2, r24	; 0x02
	ES_t Local_enuErrorState = ES_NOK;
     358:	81 e0       	ldi	r24, 0x01	; 1
     35a:	89 83       	std	Y+1, r24	; 0x01

	TWDR = Copy_u8Data;
     35c:	e3 e2       	ldi	r30, 0x23	; 35
     35e:	f0 e0       	ldi	r31, 0x00	; 0
     360:	8a 81       	ldd	r24, Y+2	; 0x02
     362:	80 83       	st	Z, r24
	TWCR |= (MASK_NUM<<TWINT);//clear flag
     364:	a6 e5       	ldi	r26, 0x56	; 86
     366:	b0 e0       	ldi	r27, 0x00	; 0
     368:	e6 e5       	ldi	r30, 0x56	; 86
     36a:	f0 e0       	ldi	r31, 0x00	; 0
     36c:	80 81       	ld	r24, Z
     36e:	80 68       	ori	r24, 0x80	; 128
     370:	8c 93       	st	X, r24

		while(! ((TWCR>>TWINT) & 1) );
     372:	e6 e5       	ldi	r30, 0x56	; 86
     374:	f0 e0       	ldi	r31, 0x00	; 0
     376:	80 81       	ld	r24, Z
     378:	88 23       	and	r24, r24
     37a:	dc f7       	brge	.-10     	; 0x372 <IIC_enuWriteData+0x26>

		if ((TWSR & 0xF8) == 0x28)
     37c:	e1 e2       	ldi	r30, 0x21	; 33
     37e:	f0 e0       	ldi	r31, 0x00	; 0
     380:	80 81       	ld	r24, Z
     382:	88 2f       	mov	r24, r24
     384:	90 e0       	ldi	r25, 0x00	; 0
     386:	88 7f       	andi	r24, 0xF8	; 248
     388:	90 70       	andi	r25, 0x00	; 0
     38a:	88 32       	cpi	r24, 0x28	; 40
     38c:	91 05       	cpc	r25, r1
     38e:	09 f4       	brne	.+2      	; 0x392 <IIC_enuWriteData+0x46>
			Local_enuErrorState = ES_OK;
     390:	19 82       	std	Y+1, r1	; 0x01

	return Local_enuErrorState;
     392:	89 81       	ldd	r24, Y+1	; 0x01
}
     394:	0f 90       	pop	r0
     396:	0f 90       	pop	r0
     398:	cf 91       	pop	r28
     39a:	df 91       	pop	r29
     39c:	08 95       	ret

0000039e <IIC_enuReadData>:

ES_t IIC_enuReadData(u8 *Copy_u8Data)
{
     39e:	df 93       	push	r29
     3a0:	cf 93       	push	r28
     3a2:	00 d0       	rcall	.+0      	; 0x3a4 <IIC_enuReadData+0x6>
     3a4:	0f 92       	push	r0
     3a6:	cd b7       	in	r28, 0x3d	; 61
     3a8:	de b7       	in	r29, 0x3e	; 62
     3aa:	9b 83       	std	Y+3, r25	; 0x03
     3ac:	8a 83       	std	Y+2, r24	; 0x02
	ES_t Local_enuErrorState = ES_NOK;
     3ae:	81 e0       	ldi	r24, 0x01	; 1
     3b0:	89 83       	std	Y+1, r24	; 0x01
	TWCR |= (MASK_NUM<<TWINT);//clear flag
     3b2:	a6 e5       	ldi	r26, 0x56	; 86
     3b4:	b0 e0       	ldi	r27, 0x00	; 0
     3b6:	e6 e5       	ldi	r30, 0x56	; 86
     3b8:	f0 e0       	ldi	r31, 0x00	; 0
     3ba:	80 81       	ld	r24, Z
     3bc:	80 68       	ori	r24, 0x80	; 128
     3be:	8c 93       	st	X, r24
		while(! ((TWCR>>TWINT) & 1) );
     3c0:	e6 e5       	ldi	r30, 0x56	; 86
     3c2:	f0 e0       	ldi	r31, 0x00	; 0
     3c4:	80 81       	ld	r24, Z
     3c6:	88 23       	and	r24, r24
     3c8:	dc f7       	brge	.-10     	; 0x3c0 <IIC_enuReadData+0x22>
		if ((TWSR & 0xF8) == 0x58)
     3ca:	e1 e2       	ldi	r30, 0x21	; 33
     3cc:	f0 e0       	ldi	r31, 0x00	; 0
     3ce:	80 81       	ld	r24, Z
     3d0:	88 2f       	mov	r24, r24
     3d2:	90 e0       	ldi	r25, 0x00	; 0
     3d4:	88 7f       	andi	r24, 0xF8	; 248
     3d6:	90 70       	andi	r25, 0x00	; 0
     3d8:	88 35       	cpi	r24, 0x58	; 88
     3da:	91 05       	cpc	r25, r1
     3dc:	41 f4       	brne	.+16     	; 0x3ee <IIC_enuReadData+0x50>
		{
			*Copy_u8Data = TWDR;
     3de:	e3 e2       	ldi	r30, 0x23	; 35
     3e0:	f0 e0       	ldi	r31, 0x00	; 0
     3e2:	80 81       	ld	r24, Z
     3e4:	ea 81       	ldd	r30, Y+2	; 0x02
     3e6:	fb 81       	ldd	r31, Y+3	; 0x03
     3e8:	80 83       	st	Z, r24
			Local_enuErrorState = ES_OK;
     3ea:	19 82       	std	Y+1, r1	; 0x01
     3ec:	11 c0       	rjmp	.+34     	; 0x410 <IIC_enuReadData+0x72>
		}
		else if((TWSR & 0xF8) == 0x80)
     3ee:	e1 e2       	ldi	r30, 0x21	; 33
     3f0:	f0 e0       	ldi	r31, 0x00	; 0
     3f2:	80 81       	ld	r24, Z
     3f4:	88 2f       	mov	r24, r24
     3f6:	90 e0       	ldi	r25, 0x00	; 0
     3f8:	88 7f       	andi	r24, 0xF8	; 248
     3fa:	90 70       	andi	r25, 0x00	; 0
     3fc:	80 38       	cpi	r24, 0x80	; 128
     3fe:	91 05       	cpc	r25, r1
     400:	39 f4       	brne	.+14     	; 0x410 <IIC_enuReadData+0x72>
		{
			*Copy_u8Data = TWDR;
     402:	e3 e2       	ldi	r30, 0x23	; 35
     404:	f0 e0       	ldi	r31, 0x00	; 0
     406:	80 81       	ld	r24, Z
     408:	ea 81       	ldd	r30, Y+2	; 0x02
     40a:	fb 81       	ldd	r31, Y+3	; 0x03
     40c:	80 83       	st	Z, r24
			Local_enuErrorState = ES_OK;
     40e:	19 82       	std	Y+1, r1	; 0x01
		}

	return Local_enuErrorState;
     410:	89 81       	ldd	r24, Y+1	; 0x01
}
     412:	0f 90       	pop	r0
     414:	0f 90       	pop	r0
     416:	0f 90       	pop	r0
     418:	cf 91       	pop	r28
     41a:	df 91       	pop	r29
     41c:	08 95       	ret

0000041e <DIO_enuINIT>:
#include"../../LIB/StdTypes.h"
#include"../../LIB/errorStatuse.h"
#include"DIO_config.h"
#include"DIO_prive.h"
ES_t DIO_enuINIT(void)
{
     41e:	df 93       	push	r29
     420:	cf 93       	push	r28
     422:	0f 92       	push	r0
     424:	cd b7       	in	r28, 0x3d	; 61
     426:	de b7       	in	r29, 0x3e	; 62
	ES_t Local_enuErrorState = ES_NOK;
     428:	81 e0       	ldi	r24, 0x01	; 1
     42a:	89 83       	std	Y+1, r24	; 0x01
	/*DIRECTION INITIALIZATION*/
	DDRA = CONC(PA_PIN0_DIR,PA_PIN1_DIR,PA_PIN2_DIR,PA_PIN3_DIR,PA_PIN4_DIR,PA_PIN5_DIR,PA_PIN6_DIR,PA_PIN7_DIR);
     42c:	ea e3       	ldi	r30, 0x3A	; 58
     42e:	f0 e0       	ldi	r31, 0x00	; 0
     430:	8c ed       	ldi	r24, 0xDC	; 220
     432:	80 83       	st	Z, r24
	DDRB = CONC(PB_PIN0_DIR,PB_PIN1_DIR,PB_PIN2_DIR,PB_PIN3_DIR,PB_PIN4_DIR,PB_PIN5_DIR,PB_PIN6_DIR,PB_PIN7_DIR);
     434:	e7 e3       	ldi	r30, 0x37	; 55
     436:	f0 e0       	ldi	r31, 0x00	; 0
     438:	8d ee       	ldi	r24, 0xED	; 237
     43a:	80 83       	st	Z, r24
	DDRC = CONC(PC_PIN0_DIR,PC_PIN1_DIR,PC_PIN2_DIR,PC_PIN3_DIR,PC_PIN4_DIR,PC_PIN5_DIR,PC_PIN6_DIR,PC_PIN7_DIR);
     43c:	e4 e3       	ldi	r30, 0x34	; 52
     43e:	f0 e0       	ldi	r31, 0x00	; 0
     440:	8b ed       	ldi	r24, 0xDB	; 219
     442:	80 83       	st	Z, r24
	DDRD = CONC(PD_PIN0_DIR,PD_PIN1_DIR,PD_PIN2_DIR,PD_PIN3_DIR,PD_PIN4_DIR,PD_PIN5_DIR,PD_PIN6_DIR,PD_PIN7_DIR);
     444:	e1 e3       	ldi	r30, 0x31	; 49
     446:	f0 e0       	ldi	r31, 0x00	; 0
     448:	8f ee       	ldi	r24, 0xEF	; 239
     44a:	80 83       	st	Z, r24
	/*VALUE INITIALIZATION*/
	PORTA = CONC(PA_PIN0_VAL,PA_PIN1_VAL,PA_PIN2_VAL,PA_PIN3_VAL,PA_PIN4_VAL,PA_PIN5_VAL,PA_PIN6_VAL,PA_PIN7_VAL);
     44c:	eb e3       	ldi	r30, 0x3B	; 59
     44e:	f0 e0       	ldi	r31, 0x00	; 0
     450:	85 ef       	ldi	r24, 0xF5	; 245
     452:	80 83       	st	Z, r24
	PORTB = CONC(PB_PIN0_VAL,PB_PIN1_VAL,PB_PIN2_VAL,PB_PIN3_VAL,PB_PIN4_VAL,PB_PIN5_VAL,PB_PIN6_VAL,PB_PIN7_VAL);
     454:	e8 e3       	ldi	r30, 0x38	; 56
     456:	f0 e0       	ldi	r31, 0x00	; 0
     458:	8f ea       	ldi	r24, 0xAF	; 175
     45a:	80 83       	st	Z, r24
	PORTC = CONC(PC_PIN0_VAL,PC_PIN1_VAL,PC_PIN2_VAL,PC_PIN3_VAL,PC_PIN4_VAL,PC_PIN5_VAL,PC_PIN6_VAL,PC_PIN7_VAL);
     45c:	e5 e3       	ldi	r30, 0x35	; 53
     45e:	f0 e0       	ldi	r31, 0x00	; 0
     460:	87 ef       	ldi	r24, 0xF7	; 247
     462:	80 83       	st	Z, r24
	PORTD = CONC(PD_PIN0_VAL,PD_PIN1_VAL,PD_PIN2_VAL,PD_PIN3_VAL,PD_PIN4_VAL,PD_PIN5_VAL,PD_PIN6_VAL,PD_PIN7_VAL);
     464:	e2 e3       	ldi	r30, 0x32	; 50
     466:	f0 e0       	ldi	r31, 0x00	; 0
     468:	8b ea       	ldi	r24, 0xAB	; 171
     46a:	80 83       	st	Z, r24
	Local_enuErrorState = ES_OK;
     46c:	19 82       	std	Y+1, r1	; 0x01
	return Local_enuErrorState;
     46e:	89 81       	ldd	r24, Y+1	; 0x01
}
     470:	0f 90       	pop	r0
     472:	cf 91       	pop	r28
     474:	df 91       	pop	r29
     476:	08 95       	ret

00000478 <DIO_enuSetPinDir>:
ES_t DIO_enuSetPinDir(u8 Copy_u8PortId,u8 Copy_u8PinId,u8 Copy_u8Direction)
{
     478:	df 93       	push	r29
     47a:	cf 93       	push	r28
     47c:	cd b7       	in	r28, 0x3d	; 61
     47e:	de b7       	in	r29, 0x3e	; 62
     480:	2e 97       	sbiw	r28, 0x0e	; 14
     482:	0f b6       	in	r0, 0x3f	; 63
     484:	f8 94       	cli
     486:	de bf       	out	0x3e, r29	; 62
     488:	0f be       	out	0x3f, r0	; 63
     48a:	cd bf       	out	0x3d, r28	; 61
     48c:	8a 83       	std	Y+2, r24	; 0x02
     48e:	6b 83       	std	Y+3, r22	; 0x03
     490:	4c 83       	std	Y+4, r20	; 0x04
	ES_t Local_enuErrorState = ES_NOK;
     492:	81 e0       	ldi	r24, 0x01	; 1
     494:	89 83       	std	Y+1, r24	; 0x01

	if(Copy_u8PortId <= DIO_PORTD && Copy_u8PinId<= DIO_PIN7)
     496:	8a 81       	ldd	r24, Y+2	; 0x02
     498:	84 30       	cpi	r24, 0x04	; 4
     49a:	08 f0       	brcs	.+2      	; 0x49e <DIO_enuSetPinDir+0x26>
     49c:	ff c3       	rjmp	.+2046   	; 0xc9c <__stack+0x43d>
     49e:	8b 81       	ldd	r24, Y+3	; 0x03
     4a0:	88 30       	cpi	r24, 0x08	; 8
     4a2:	08 f0       	brcs	.+2      	; 0x4a6 <DIO_enuSetPinDir+0x2e>
     4a4:	fb c3       	rjmp	.+2038   	; 0xc9c <__stack+0x43d>
	{
		switch(Copy_u8PortId)
     4a6:	8a 81       	ldd	r24, Y+2	; 0x02
     4a8:	28 2f       	mov	r18, r24
     4aa:	30 e0       	ldi	r19, 0x00	; 0
     4ac:	3e 87       	std	Y+14, r19	; 0x0e
     4ae:	2d 87       	std	Y+13, r18	; 0x0d
     4b0:	8d 85       	ldd	r24, Y+13	; 0x0d
     4b2:	9e 85       	ldd	r25, Y+14	; 0x0e
     4b4:	81 30       	cpi	r24, 0x01	; 1
     4b6:	91 05       	cpc	r25, r1
     4b8:	09 f4       	brne	.+2      	; 0x4bc <DIO_enuSetPinDir+0x44>
     4ba:	0d c1       	rjmp	.+538    	; 0x6d6 <DIO_enuSetPinDir+0x25e>
     4bc:	2d 85       	ldd	r18, Y+13	; 0x0d
     4be:	3e 85       	ldd	r19, Y+14	; 0x0e
     4c0:	22 30       	cpi	r18, 0x02	; 2
     4c2:	31 05       	cpc	r19, r1
     4c4:	2c f4       	brge	.+10     	; 0x4d0 <DIO_enuSetPinDir+0x58>
     4c6:	8d 85       	ldd	r24, Y+13	; 0x0d
     4c8:	9e 85       	ldd	r25, Y+14	; 0x0e
     4ca:	00 97       	sbiw	r24, 0x00	; 0
     4cc:	71 f0       	breq	.+28     	; 0x4ea <DIO_enuSetPinDir+0x72>
     4ce:	e4 c3       	rjmp	.+1992   	; 0xc98 <__stack+0x439>
     4d0:	2d 85       	ldd	r18, Y+13	; 0x0d
     4d2:	3e 85       	ldd	r19, Y+14	; 0x0e
     4d4:	22 30       	cpi	r18, 0x02	; 2
     4d6:	31 05       	cpc	r19, r1
     4d8:	09 f4       	brne	.+2      	; 0x4dc <DIO_enuSetPinDir+0x64>
     4da:	f3 c1       	rjmp	.+998    	; 0x8c2 <__stack+0x63>
     4dc:	8d 85       	ldd	r24, Y+13	; 0x0d
     4de:	9e 85       	ldd	r25, Y+14	; 0x0e
     4e0:	83 30       	cpi	r24, 0x03	; 3
     4e2:	91 05       	cpc	r25, r1
     4e4:	09 f4       	brne	.+2      	; 0x4e8 <DIO_enuSetPinDir+0x70>
     4e6:	e3 c2       	rjmp	.+1478   	; 0xaae <__stack+0x24f>
     4e8:	d7 c3       	rjmp	.+1966   	; 0xc98 <__stack+0x439>
		{
		case DIO_PORTA://SelectFromPortA
			switch(Copy_u8PinId)
     4ea:	8b 81       	ldd	r24, Y+3	; 0x03
     4ec:	28 2f       	mov	r18, r24
     4ee:	30 e0       	ldi	r19, 0x00	; 0
     4f0:	3c 87       	std	Y+12, r19	; 0x0c
     4f2:	2b 87       	std	Y+11, r18	; 0x0b
     4f4:	8b 85       	ldd	r24, Y+11	; 0x0b
     4f6:	9c 85       	ldd	r25, Y+12	; 0x0c
     4f8:	83 30       	cpi	r24, 0x03	; 3
     4fa:	91 05       	cpc	r25, r1
     4fc:	09 f4       	brne	.+2      	; 0x500 <DIO_enuSetPinDir+0x88>
     4fe:	6a c0       	rjmp	.+212    	; 0x5d4 <DIO_enuSetPinDir+0x15c>
     500:	2b 85       	ldd	r18, Y+11	; 0x0b
     502:	3c 85       	ldd	r19, Y+12	; 0x0c
     504:	24 30       	cpi	r18, 0x04	; 4
     506:	31 05       	cpc	r19, r1
     508:	84 f4       	brge	.+32     	; 0x52a <DIO_enuSetPinDir+0xb2>
     50a:	8b 85       	ldd	r24, Y+11	; 0x0b
     50c:	9c 85       	ldd	r25, Y+12	; 0x0c
     50e:	81 30       	cpi	r24, 0x01	; 1
     510:	91 05       	cpc	r25, r1
     512:	a1 f1       	breq	.+104    	; 0x57c <DIO_enuSetPinDir+0x104>
     514:	2b 85       	ldd	r18, Y+11	; 0x0b
     516:	3c 85       	ldd	r19, Y+12	; 0x0c
     518:	22 30       	cpi	r18, 0x02	; 2
     51a:	31 05       	cpc	r19, r1
     51c:	0c f0       	brlt	.+2      	; 0x520 <DIO_enuSetPinDir+0xa8>
     51e:	43 c0       	rjmp	.+134    	; 0x5a6 <DIO_enuSetPinDir+0x12e>
     520:	8b 85       	ldd	r24, Y+11	; 0x0b
     522:	9c 85       	ldd	r25, Y+12	; 0x0c
     524:	00 97       	sbiw	r24, 0x00	; 0
     526:	d1 f0       	breq	.+52     	; 0x55c <DIO_enuSetPinDir+0xe4>
     528:	b7 c3       	rjmp	.+1902   	; 0xc98 <__stack+0x439>
     52a:	2b 85       	ldd	r18, Y+11	; 0x0b
     52c:	3c 85       	ldd	r19, Y+12	; 0x0c
     52e:	25 30       	cpi	r18, 0x05	; 5
     530:	31 05       	cpc	r19, r1
     532:	09 f4       	brne	.+2      	; 0x536 <DIO_enuSetPinDir+0xbe>
     534:	81 c0       	rjmp	.+258    	; 0x638 <DIO_enuSetPinDir+0x1c0>
     536:	8b 85       	ldd	r24, Y+11	; 0x0b
     538:	9c 85       	ldd	r25, Y+12	; 0x0c
     53a:	85 30       	cpi	r24, 0x05	; 5
     53c:	91 05       	cpc	r25, r1
     53e:	0c f4       	brge	.+2      	; 0x542 <DIO_enuSetPinDir+0xca>
     540:	62 c0       	rjmp	.+196    	; 0x606 <DIO_enuSetPinDir+0x18e>
     542:	2b 85       	ldd	r18, Y+11	; 0x0b
     544:	3c 85       	ldd	r19, Y+12	; 0x0c
     546:	26 30       	cpi	r18, 0x06	; 6
     548:	31 05       	cpc	r19, r1
     54a:	09 f4       	brne	.+2      	; 0x54e <DIO_enuSetPinDir+0xd6>
     54c:	90 c0       	rjmp	.+288    	; 0x66e <DIO_enuSetPinDir+0x1f6>
     54e:	8b 85       	ldd	r24, Y+11	; 0x0b
     550:	9c 85       	ldd	r25, Y+12	; 0x0c
     552:	87 30       	cpi	r24, 0x07	; 7
     554:	91 05       	cpc	r25, r1
     556:	09 f4       	brne	.+2      	; 0x55a <DIO_enuSetPinDir+0xe2>
     558:	a6 c0       	rjmp	.+332    	; 0x6a6 <DIO_enuSetPinDir+0x22e>
     55a:	9e c3       	rjmp	.+1852   	; 0xc98 <__stack+0x439>
			{
			case DIO_PIN0:
				DDRA &= ~(1<<DIO_PIN0);
     55c:	aa e3       	ldi	r26, 0x3A	; 58
     55e:	b0 e0       	ldi	r27, 0x00	; 0
     560:	ea e3       	ldi	r30, 0x3A	; 58
     562:	f0 e0       	ldi	r31, 0x00	; 0
     564:	80 81       	ld	r24, Z
     566:	8e 7f       	andi	r24, 0xFE	; 254
     568:	8c 93       	st	X, r24
				DDRA |=(Copy_u8Direction<<DIO_PIN0);break;
     56a:	aa e3       	ldi	r26, 0x3A	; 58
     56c:	b0 e0       	ldi	r27, 0x00	; 0
     56e:	ea e3       	ldi	r30, 0x3A	; 58
     570:	f0 e0       	ldi	r31, 0x00	; 0
     572:	90 81       	ld	r25, Z
     574:	8c 81       	ldd	r24, Y+4	; 0x04
     576:	89 2b       	or	r24, r25
     578:	8c 93       	st	X, r24
     57a:	8e c3       	rjmp	.+1820   	; 0xc98 <__stack+0x439>
			case DIO_PIN1:
				DDRA &= ~(1<<DIO_PIN1);
     57c:	aa e3       	ldi	r26, 0x3A	; 58
     57e:	b0 e0       	ldi	r27, 0x00	; 0
     580:	ea e3       	ldi	r30, 0x3A	; 58
     582:	f0 e0       	ldi	r31, 0x00	; 0
     584:	80 81       	ld	r24, Z
     586:	8d 7f       	andi	r24, 0xFD	; 253
     588:	8c 93       	st	X, r24
				DDRA |=(Copy_u8Direction<<DIO_PIN1);break;
     58a:	aa e3       	ldi	r26, 0x3A	; 58
     58c:	b0 e0       	ldi	r27, 0x00	; 0
     58e:	ea e3       	ldi	r30, 0x3A	; 58
     590:	f0 e0       	ldi	r31, 0x00	; 0
     592:	80 81       	ld	r24, Z
     594:	28 2f       	mov	r18, r24
     596:	8c 81       	ldd	r24, Y+4	; 0x04
     598:	88 2f       	mov	r24, r24
     59a:	90 e0       	ldi	r25, 0x00	; 0
     59c:	88 0f       	add	r24, r24
     59e:	99 1f       	adc	r25, r25
     5a0:	82 2b       	or	r24, r18
     5a2:	8c 93       	st	X, r24
     5a4:	79 c3       	rjmp	.+1778   	; 0xc98 <__stack+0x439>
			case DIO_PIN2:
				DDRA &= ~(1<<DIO_PIN2);
     5a6:	aa e3       	ldi	r26, 0x3A	; 58
     5a8:	b0 e0       	ldi	r27, 0x00	; 0
     5aa:	ea e3       	ldi	r30, 0x3A	; 58
     5ac:	f0 e0       	ldi	r31, 0x00	; 0
     5ae:	80 81       	ld	r24, Z
     5b0:	8b 7f       	andi	r24, 0xFB	; 251
     5b2:	8c 93       	st	X, r24
				DDRA |=(Copy_u8Direction<<DIO_PIN2);break;
     5b4:	aa e3       	ldi	r26, 0x3A	; 58
     5b6:	b0 e0       	ldi	r27, 0x00	; 0
     5b8:	ea e3       	ldi	r30, 0x3A	; 58
     5ba:	f0 e0       	ldi	r31, 0x00	; 0
     5bc:	80 81       	ld	r24, Z
     5be:	28 2f       	mov	r18, r24
     5c0:	8c 81       	ldd	r24, Y+4	; 0x04
     5c2:	88 2f       	mov	r24, r24
     5c4:	90 e0       	ldi	r25, 0x00	; 0
     5c6:	88 0f       	add	r24, r24
     5c8:	99 1f       	adc	r25, r25
     5ca:	88 0f       	add	r24, r24
     5cc:	99 1f       	adc	r25, r25
     5ce:	82 2b       	or	r24, r18
     5d0:	8c 93       	st	X, r24
     5d2:	62 c3       	rjmp	.+1732   	; 0xc98 <__stack+0x439>
			case DIO_PIN3:
				DDRA &= ~(1<<DIO_PIN3);
     5d4:	aa e3       	ldi	r26, 0x3A	; 58
     5d6:	b0 e0       	ldi	r27, 0x00	; 0
     5d8:	ea e3       	ldi	r30, 0x3A	; 58
     5da:	f0 e0       	ldi	r31, 0x00	; 0
     5dc:	80 81       	ld	r24, Z
     5de:	87 7f       	andi	r24, 0xF7	; 247
     5e0:	8c 93       	st	X, r24
				DDRA |=(Copy_u8Direction<<DIO_PIN3);break;
     5e2:	aa e3       	ldi	r26, 0x3A	; 58
     5e4:	b0 e0       	ldi	r27, 0x00	; 0
     5e6:	ea e3       	ldi	r30, 0x3A	; 58
     5e8:	f0 e0       	ldi	r31, 0x00	; 0
     5ea:	80 81       	ld	r24, Z
     5ec:	28 2f       	mov	r18, r24
     5ee:	8c 81       	ldd	r24, Y+4	; 0x04
     5f0:	88 2f       	mov	r24, r24
     5f2:	90 e0       	ldi	r25, 0x00	; 0
     5f4:	88 0f       	add	r24, r24
     5f6:	99 1f       	adc	r25, r25
     5f8:	88 0f       	add	r24, r24
     5fa:	99 1f       	adc	r25, r25
     5fc:	88 0f       	add	r24, r24
     5fe:	99 1f       	adc	r25, r25
     600:	82 2b       	or	r24, r18
     602:	8c 93       	st	X, r24
     604:	49 c3       	rjmp	.+1682   	; 0xc98 <__stack+0x439>
			case DIO_PIN4:
				DDRA &= ~(1<<DIO_PIN4);
     606:	aa e3       	ldi	r26, 0x3A	; 58
     608:	b0 e0       	ldi	r27, 0x00	; 0
     60a:	ea e3       	ldi	r30, 0x3A	; 58
     60c:	f0 e0       	ldi	r31, 0x00	; 0
     60e:	80 81       	ld	r24, Z
     610:	8f 7e       	andi	r24, 0xEF	; 239
     612:	8c 93       	st	X, r24
				DDRA |=(Copy_u8Direction<<DIO_PIN4);break;
     614:	aa e3       	ldi	r26, 0x3A	; 58
     616:	b0 e0       	ldi	r27, 0x00	; 0
     618:	ea e3       	ldi	r30, 0x3A	; 58
     61a:	f0 e0       	ldi	r31, 0x00	; 0
     61c:	80 81       	ld	r24, Z
     61e:	28 2f       	mov	r18, r24
     620:	8c 81       	ldd	r24, Y+4	; 0x04
     622:	88 2f       	mov	r24, r24
     624:	90 e0       	ldi	r25, 0x00	; 0
     626:	82 95       	swap	r24
     628:	92 95       	swap	r25
     62a:	90 7f       	andi	r25, 0xF0	; 240
     62c:	98 27       	eor	r25, r24
     62e:	80 7f       	andi	r24, 0xF0	; 240
     630:	98 27       	eor	r25, r24
     632:	82 2b       	or	r24, r18
     634:	8c 93       	st	X, r24
     636:	30 c3       	rjmp	.+1632   	; 0xc98 <__stack+0x439>
			case DIO_PIN5:
				DDRA &= ~(1<<DIO_PIN5);
     638:	aa e3       	ldi	r26, 0x3A	; 58
     63a:	b0 e0       	ldi	r27, 0x00	; 0
     63c:	ea e3       	ldi	r30, 0x3A	; 58
     63e:	f0 e0       	ldi	r31, 0x00	; 0
     640:	80 81       	ld	r24, Z
     642:	8f 7d       	andi	r24, 0xDF	; 223
     644:	8c 93       	st	X, r24
				DDRA |=(Copy_u8Direction<<DIO_PIN5);break;
     646:	aa e3       	ldi	r26, 0x3A	; 58
     648:	b0 e0       	ldi	r27, 0x00	; 0
     64a:	ea e3       	ldi	r30, 0x3A	; 58
     64c:	f0 e0       	ldi	r31, 0x00	; 0
     64e:	80 81       	ld	r24, Z
     650:	28 2f       	mov	r18, r24
     652:	8c 81       	ldd	r24, Y+4	; 0x04
     654:	88 2f       	mov	r24, r24
     656:	90 e0       	ldi	r25, 0x00	; 0
     658:	88 0f       	add	r24, r24
     65a:	99 1f       	adc	r25, r25
     65c:	82 95       	swap	r24
     65e:	92 95       	swap	r25
     660:	90 7f       	andi	r25, 0xF0	; 240
     662:	98 27       	eor	r25, r24
     664:	80 7f       	andi	r24, 0xF0	; 240
     666:	98 27       	eor	r25, r24
     668:	82 2b       	or	r24, r18
     66a:	8c 93       	st	X, r24
     66c:	15 c3       	rjmp	.+1578   	; 0xc98 <__stack+0x439>
			case DIO_PIN6:
				DDRA &= ~(1<<DIO_PIN6);
     66e:	aa e3       	ldi	r26, 0x3A	; 58
     670:	b0 e0       	ldi	r27, 0x00	; 0
     672:	ea e3       	ldi	r30, 0x3A	; 58
     674:	f0 e0       	ldi	r31, 0x00	; 0
     676:	80 81       	ld	r24, Z
     678:	8f 7b       	andi	r24, 0xBF	; 191
     67a:	8c 93       	st	X, r24
				DDRA |=(Copy_u8Direction<<DIO_PIN6);break;
     67c:	aa e3       	ldi	r26, 0x3A	; 58
     67e:	b0 e0       	ldi	r27, 0x00	; 0
     680:	ea e3       	ldi	r30, 0x3A	; 58
     682:	f0 e0       	ldi	r31, 0x00	; 0
     684:	80 81       	ld	r24, Z
     686:	28 2f       	mov	r18, r24
     688:	8c 81       	ldd	r24, Y+4	; 0x04
     68a:	88 2f       	mov	r24, r24
     68c:	90 e0       	ldi	r25, 0x00	; 0
     68e:	00 24       	eor	r0, r0
     690:	96 95       	lsr	r25
     692:	87 95       	ror	r24
     694:	07 94       	ror	r0
     696:	96 95       	lsr	r25
     698:	87 95       	ror	r24
     69a:	07 94       	ror	r0
     69c:	98 2f       	mov	r25, r24
     69e:	80 2d       	mov	r24, r0
     6a0:	82 2b       	or	r24, r18
     6a2:	8c 93       	st	X, r24
     6a4:	f9 c2       	rjmp	.+1522   	; 0xc98 <__stack+0x439>
			case DIO_PIN7:
				DDRA &= ~(1<<DIO_PIN7);
     6a6:	aa e3       	ldi	r26, 0x3A	; 58
     6a8:	b0 e0       	ldi	r27, 0x00	; 0
     6aa:	ea e3       	ldi	r30, 0x3A	; 58
     6ac:	f0 e0       	ldi	r31, 0x00	; 0
     6ae:	80 81       	ld	r24, Z
     6b0:	8f 77       	andi	r24, 0x7F	; 127
     6b2:	8c 93       	st	X, r24
				DDRA |=(Copy_u8Direction<<DIO_PIN7);break;
     6b4:	aa e3       	ldi	r26, 0x3A	; 58
     6b6:	b0 e0       	ldi	r27, 0x00	; 0
     6b8:	ea e3       	ldi	r30, 0x3A	; 58
     6ba:	f0 e0       	ldi	r31, 0x00	; 0
     6bc:	80 81       	ld	r24, Z
     6be:	28 2f       	mov	r18, r24
     6c0:	8c 81       	ldd	r24, Y+4	; 0x04
     6c2:	88 2f       	mov	r24, r24
     6c4:	90 e0       	ldi	r25, 0x00	; 0
     6c6:	96 95       	lsr	r25
     6c8:	98 2f       	mov	r25, r24
     6ca:	88 27       	eor	r24, r24
     6cc:	97 95       	ror	r25
     6ce:	87 95       	ror	r24
     6d0:	82 2b       	or	r24, r18
     6d2:	8c 93       	st	X, r24
     6d4:	e1 c2       	rjmp	.+1474   	; 0xc98 <__stack+0x439>

			}
			break;
			case DIO_PORTB://SelectFromPortB
				switch(Copy_u8PinId)
     6d6:	8b 81       	ldd	r24, Y+3	; 0x03
     6d8:	28 2f       	mov	r18, r24
     6da:	30 e0       	ldi	r19, 0x00	; 0
     6dc:	3a 87       	std	Y+10, r19	; 0x0a
     6de:	29 87       	std	Y+9, r18	; 0x09
     6e0:	89 85       	ldd	r24, Y+9	; 0x09
     6e2:	9a 85       	ldd	r25, Y+10	; 0x0a
     6e4:	83 30       	cpi	r24, 0x03	; 3
     6e6:	91 05       	cpc	r25, r1
     6e8:	09 f4       	brne	.+2      	; 0x6ec <DIO_enuSetPinDir+0x274>
     6ea:	6a c0       	rjmp	.+212    	; 0x7c0 <DIO_enuSetPinDir+0x348>
     6ec:	29 85       	ldd	r18, Y+9	; 0x09
     6ee:	3a 85       	ldd	r19, Y+10	; 0x0a
     6f0:	24 30       	cpi	r18, 0x04	; 4
     6f2:	31 05       	cpc	r19, r1
     6f4:	84 f4       	brge	.+32     	; 0x716 <DIO_enuSetPinDir+0x29e>
     6f6:	89 85       	ldd	r24, Y+9	; 0x09
     6f8:	9a 85       	ldd	r25, Y+10	; 0x0a
     6fa:	81 30       	cpi	r24, 0x01	; 1
     6fc:	91 05       	cpc	r25, r1
     6fe:	a1 f1       	breq	.+104    	; 0x768 <DIO_enuSetPinDir+0x2f0>
     700:	29 85       	ldd	r18, Y+9	; 0x09
     702:	3a 85       	ldd	r19, Y+10	; 0x0a
     704:	22 30       	cpi	r18, 0x02	; 2
     706:	31 05       	cpc	r19, r1
     708:	0c f0       	brlt	.+2      	; 0x70c <DIO_enuSetPinDir+0x294>
     70a:	43 c0       	rjmp	.+134    	; 0x792 <DIO_enuSetPinDir+0x31a>
     70c:	89 85       	ldd	r24, Y+9	; 0x09
     70e:	9a 85       	ldd	r25, Y+10	; 0x0a
     710:	00 97       	sbiw	r24, 0x00	; 0
     712:	d1 f0       	breq	.+52     	; 0x748 <DIO_enuSetPinDir+0x2d0>
     714:	c1 c2       	rjmp	.+1410   	; 0xc98 <__stack+0x439>
     716:	29 85       	ldd	r18, Y+9	; 0x09
     718:	3a 85       	ldd	r19, Y+10	; 0x0a
     71a:	25 30       	cpi	r18, 0x05	; 5
     71c:	31 05       	cpc	r19, r1
     71e:	09 f4       	brne	.+2      	; 0x722 <DIO_enuSetPinDir+0x2aa>
     720:	81 c0       	rjmp	.+258    	; 0x824 <DIO_enuSetPinDir+0x3ac>
     722:	89 85       	ldd	r24, Y+9	; 0x09
     724:	9a 85       	ldd	r25, Y+10	; 0x0a
     726:	85 30       	cpi	r24, 0x05	; 5
     728:	91 05       	cpc	r25, r1
     72a:	0c f4       	brge	.+2      	; 0x72e <DIO_enuSetPinDir+0x2b6>
     72c:	62 c0       	rjmp	.+196    	; 0x7f2 <DIO_enuSetPinDir+0x37a>
     72e:	29 85       	ldd	r18, Y+9	; 0x09
     730:	3a 85       	ldd	r19, Y+10	; 0x0a
     732:	26 30       	cpi	r18, 0x06	; 6
     734:	31 05       	cpc	r19, r1
     736:	09 f4       	brne	.+2      	; 0x73a <DIO_enuSetPinDir+0x2c2>
     738:	90 c0       	rjmp	.+288    	; 0x85a <DIO_enuSetPinDir+0x3e2>
     73a:	89 85       	ldd	r24, Y+9	; 0x09
     73c:	9a 85       	ldd	r25, Y+10	; 0x0a
     73e:	87 30       	cpi	r24, 0x07	; 7
     740:	91 05       	cpc	r25, r1
     742:	09 f4       	brne	.+2      	; 0x746 <DIO_enuSetPinDir+0x2ce>
     744:	a6 c0       	rjmp	.+332    	; 0x892 <__stack+0x33>
     746:	a8 c2       	rjmp	.+1360   	; 0xc98 <__stack+0x439>
				{
				case DIO_PIN0:
					DDRB &= ~(1<<DIO_PIN0);
     748:	a7 e3       	ldi	r26, 0x37	; 55
     74a:	b0 e0       	ldi	r27, 0x00	; 0
     74c:	e7 e3       	ldi	r30, 0x37	; 55
     74e:	f0 e0       	ldi	r31, 0x00	; 0
     750:	80 81       	ld	r24, Z
     752:	8e 7f       	andi	r24, 0xFE	; 254
     754:	8c 93       	st	X, r24
					DDRB |=(Copy_u8Direction<<DIO_PIN0);break;
     756:	a7 e3       	ldi	r26, 0x37	; 55
     758:	b0 e0       	ldi	r27, 0x00	; 0
     75a:	e7 e3       	ldi	r30, 0x37	; 55
     75c:	f0 e0       	ldi	r31, 0x00	; 0
     75e:	90 81       	ld	r25, Z
     760:	8c 81       	ldd	r24, Y+4	; 0x04
     762:	89 2b       	or	r24, r25
     764:	8c 93       	st	X, r24
     766:	98 c2       	rjmp	.+1328   	; 0xc98 <__stack+0x439>
				case DIO_PIN1:
					DDRB &= ~(1<<DIO_PIN1);
     768:	a7 e3       	ldi	r26, 0x37	; 55
     76a:	b0 e0       	ldi	r27, 0x00	; 0
     76c:	e7 e3       	ldi	r30, 0x37	; 55
     76e:	f0 e0       	ldi	r31, 0x00	; 0
     770:	80 81       	ld	r24, Z
     772:	8d 7f       	andi	r24, 0xFD	; 253
     774:	8c 93       	st	X, r24
					DDRB |=(Copy_u8Direction<<DIO_PIN1);break;
     776:	a7 e3       	ldi	r26, 0x37	; 55
     778:	b0 e0       	ldi	r27, 0x00	; 0
     77a:	e7 e3       	ldi	r30, 0x37	; 55
     77c:	f0 e0       	ldi	r31, 0x00	; 0
     77e:	80 81       	ld	r24, Z
     780:	28 2f       	mov	r18, r24
     782:	8c 81       	ldd	r24, Y+4	; 0x04
     784:	88 2f       	mov	r24, r24
     786:	90 e0       	ldi	r25, 0x00	; 0
     788:	88 0f       	add	r24, r24
     78a:	99 1f       	adc	r25, r25
     78c:	82 2b       	or	r24, r18
     78e:	8c 93       	st	X, r24
     790:	83 c2       	rjmp	.+1286   	; 0xc98 <__stack+0x439>
				case DIO_PIN2:
					DDRB &= ~(1<<DIO_PIN2);
     792:	a7 e3       	ldi	r26, 0x37	; 55
     794:	b0 e0       	ldi	r27, 0x00	; 0
     796:	e7 e3       	ldi	r30, 0x37	; 55
     798:	f0 e0       	ldi	r31, 0x00	; 0
     79a:	80 81       	ld	r24, Z
     79c:	8b 7f       	andi	r24, 0xFB	; 251
     79e:	8c 93       	st	X, r24
					DDRB |=(Copy_u8Direction<<DIO_PIN2);break;
     7a0:	a7 e3       	ldi	r26, 0x37	; 55
     7a2:	b0 e0       	ldi	r27, 0x00	; 0
     7a4:	e7 e3       	ldi	r30, 0x37	; 55
     7a6:	f0 e0       	ldi	r31, 0x00	; 0
     7a8:	80 81       	ld	r24, Z
     7aa:	28 2f       	mov	r18, r24
     7ac:	8c 81       	ldd	r24, Y+4	; 0x04
     7ae:	88 2f       	mov	r24, r24
     7b0:	90 e0       	ldi	r25, 0x00	; 0
     7b2:	88 0f       	add	r24, r24
     7b4:	99 1f       	adc	r25, r25
     7b6:	88 0f       	add	r24, r24
     7b8:	99 1f       	adc	r25, r25
     7ba:	82 2b       	or	r24, r18
     7bc:	8c 93       	st	X, r24
     7be:	6c c2       	rjmp	.+1240   	; 0xc98 <__stack+0x439>
				case DIO_PIN3:
					DDRB &= ~(1<<DIO_PIN3);
     7c0:	a7 e3       	ldi	r26, 0x37	; 55
     7c2:	b0 e0       	ldi	r27, 0x00	; 0
     7c4:	e7 e3       	ldi	r30, 0x37	; 55
     7c6:	f0 e0       	ldi	r31, 0x00	; 0
     7c8:	80 81       	ld	r24, Z
     7ca:	87 7f       	andi	r24, 0xF7	; 247
     7cc:	8c 93       	st	X, r24
					DDRB |=(Copy_u8Direction<<DIO_PIN3);break;
     7ce:	a7 e3       	ldi	r26, 0x37	; 55
     7d0:	b0 e0       	ldi	r27, 0x00	; 0
     7d2:	e7 e3       	ldi	r30, 0x37	; 55
     7d4:	f0 e0       	ldi	r31, 0x00	; 0
     7d6:	80 81       	ld	r24, Z
     7d8:	28 2f       	mov	r18, r24
     7da:	8c 81       	ldd	r24, Y+4	; 0x04
     7dc:	88 2f       	mov	r24, r24
     7de:	90 e0       	ldi	r25, 0x00	; 0
     7e0:	88 0f       	add	r24, r24
     7e2:	99 1f       	adc	r25, r25
     7e4:	88 0f       	add	r24, r24
     7e6:	99 1f       	adc	r25, r25
     7e8:	88 0f       	add	r24, r24
     7ea:	99 1f       	adc	r25, r25
     7ec:	82 2b       	or	r24, r18
     7ee:	8c 93       	st	X, r24
     7f0:	53 c2       	rjmp	.+1190   	; 0xc98 <__stack+0x439>
				case DIO_PIN4:
					DDRB &= ~(1<<DIO_PIN4);
     7f2:	a7 e3       	ldi	r26, 0x37	; 55
     7f4:	b0 e0       	ldi	r27, 0x00	; 0
     7f6:	e7 e3       	ldi	r30, 0x37	; 55
     7f8:	f0 e0       	ldi	r31, 0x00	; 0
     7fa:	80 81       	ld	r24, Z
     7fc:	8f 7e       	andi	r24, 0xEF	; 239
     7fe:	8c 93       	st	X, r24
					DDRB |=(Copy_u8Direction<<DIO_PIN4);break;
     800:	a7 e3       	ldi	r26, 0x37	; 55
     802:	b0 e0       	ldi	r27, 0x00	; 0
     804:	e7 e3       	ldi	r30, 0x37	; 55
     806:	f0 e0       	ldi	r31, 0x00	; 0
     808:	80 81       	ld	r24, Z
     80a:	28 2f       	mov	r18, r24
     80c:	8c 81       	ldd	r24, Y+4	; 0x04
     80e:	88 2f       	mov	r24, r24
     810:	90 e0       	ldi	r25, 0x00	; 0
     812:	82 95       	swap	r24
     814:	92 95       	swap	r25
     816:	90 7f       	andi	r25, 0xF0	; 240
     818:	98 27       	eor	r25, r24
     81a:	80 7f       	andi	r24, 0xF0	; 240
     81c:	98 27       	eor	r25, r24
     81e:	82 2b       	or	r24, r18
     820:	8c 93       	st	X, r24
     822:	3a c2       	rjmp	.+1140   	; 0xc98 <__stack+0x439>
				case DIO_PIN5:
					DDRB &= ~(1<<DIO_PIN5);
     824:	a7 e3       	ldi	r26, 0x37	; 55
     826:	b0 e0       	ldi	r27, 0x00	; 0
     828:	e7 e3       	ldi	r30, 0x37	; 55
     82a:	f0 e0       	ldi	r31, 0x00	; 0
     82c:	80 81       	ld	r24, Z
     82e:	8f 7d       	andi	r24, 0xDF	; 223
     830:	8c 93       	st	X, r24
					DDRB |=(Copy_u8Direction<<DIO_PIN5);break;
     832:	a7 e3       	ldi	r26, 0x37	; 55
     834:	b0 e0       	ldi	r27, 0x00	; 0
     836:	e7 e3       	ldi	r30, 0x37	; 55
     838:	f0 e0       	ldi	r31, 0x00	; 0
     83a:	80 81       	ld	r24, Z
     83c:	28 2f       	mov	r18, r24
     83e:	8c 81       	ldd	r24, Y+4	; 0x04
     840:	88 2f       	mov	r24, r24
     842:	90 e0       	ldi	r25, 0x00	; 0
     844:	88 0f       	add	r24, r24
     846:	99 1f       	adc	r25, r25
     848:	82 95       	swap	r24
     84a:	92 95       	swap	r25
     84c:	90 7f       	andi	r25, 0xF0	; 240
     84e:	98 27       	eor	r25, r24
     850:	80 7f       	andi	r24, 0xF0	; 240
     852:	98 27       	eor	r25, r24
     854:	82 2b       	or	r24, r18
     856:	8c 93       	st	X, r24
     858:	1f c2       	rjmp	.+1086   	; 0xc98 <__stack+0x439>
				case DIO_PIN6:
					DDRB &= ~(1<<DIO_PIN6);
     85a:	a7 e3       	ldi	r26, 0x37	; 55
     85c:	b0 e0       	ldi	r27, 0x00	; 0
     85e:	e7 e3       	ldi	r30, 0x37	; 55
     860:	f0 e0       	ldi	r31, 0x00	; 0
     862:	80 81       	ld	r24, Z
     864:	8f 7b       	andi	r24, 0xBF	; 191
     866:	8c 93       	st	X, r24
					DDRB |=(Copy_u8Direction<<DIO_PIN6);break;
     868:	a7 e3       	ldi	r26, 0x37	; 55
     86a:	b0 e0       	ldi	r27, 0x00	; 0
     86c:	e7 e3       	ldi	r30, 0x37	; 55
     86e:	f0 e0       	ldi	r31, 0x00	; 0
     870:	80 81       	ld	r24, Z
     872:	28 2f       	mov	r18, r24
     874:	8c 81       	ldd	r24, Y+4	; 0x04
     876:	88 2f       	mov	r24, r24
     878:	90 e0       	ldi	r25, 0x00	; 0
     87a:	00 24       	eor	r0, r0
     87c:	96 95       	lsr	r25
     87e:	87 95       	ror	r24
     880:	07 94       	ror	r0
     882:	96 95       	lsr	r25
     884:	87 95       	ror	r24
     886:	07 94       	ror	r0
     888:	98 2f       	mov	r25, r24
     88a:	80 2d       	mov	r24, r0
     88c:	82 2b       	or	r24, r18
     88e:	8c 93       	st	X, r24
     890:	03 c2       	rjmp	.+1030   	; 0xc98 <__stack+0x439>
				case DIO_PIN7:
					DDRB &= ~(1<<DIO_PIN7);
     892:	a7 e3       	ldi	r26, 0x37	; 55
     894:	b0 e0       	ldi	r27, 0x00	; 0
     896:	e7 e3       	ldi	r30, 0x37	; 55
     898:	f0 e0       	ldi	r31, 0x00	; 0
     89a:	80 81       	ld	r24, Z
     89c:	8f 77       	andi	r24, 0x7F	; 127
     89e:	8c 93       	st	X, r24
					DDRB |=(Copy_u8Direction<<DIO_PIN7);break;
     8a0:	a7 e3       	ldi	r26, 0x37	; 55
     8a2:	b0 e0       	ldi	r27, 0x00	; 0
     8a4:	e7 e3       	ldi	r30, 0x37	; 55
     8a6:	f0 e0       	ldi	r31, 0x00	; 0
     8a8:	80 81       	ld	r24, Z
     8aa:	28 2f       	mov	r18, r24
     8ac:	8c 81       	ldd	r24, Y+4	; 0x04
     8ae:	88 2f       	mov	r24, r24
     8b0:	90 e0       	ldi	r25, 0x00	; 0
     8b2:	96 95       	lsr	r25
     8b4:	98 2f       	mov	r25, r24
     8b6:	88 27       	eor	r24, r24
     8b8:	97 95       	ror	r25
     8ba:	87 95       	ror	r24
     8bc:	82 2b       	or	r24, r18
     8be:	8c 93       	st	X, r24
     8c0:	eb c1       	rjmp	.+982    	; 0xc98 <__stack+0x439>
				}
				break;
				case DIO_PORTC://SelectFromPortC
					switch(Copy_u8PinId)
     8c2:	8b 81       	ldd	r24, Y+3	; 0x03
     8c4:	28 2f       	mov	r18, r24
     8c6:	30 e0       	ldi	r19, 0x00	; 0
     8c8:	38 87       	std	Y+8, r19	; 0x08
     8ca:	2f 83       	std	Y+7, r18	; 0x07
     8cc:	8f 81       	ldd	r24, Y+7	; 0x07
     8ce:	98 85       	ldd	r25, Y+8	; 0x08
     8d0:	83 30       	cpi	r24, 0x03	; 3
     8d2:	91 05       	cpc	r25, r1
     8d4:	09 f4       	brne	.+2      	; 0x8d8 <__stack+0x79>
     8d6:	6a c0       	rjmp	.+212    	; 0x9ac <__stack+0x14d>
     8d8:	2f 81       	ldd	r18, Y+7	; 0x07
     8da:	38 85       	ldd	r19, Y+8	; 0x08
     8dc:	24 30       	cpi	r18, 0x04	; 4
     8de:	31 05       	cpc	r19, r1
     8e0:	84 f4       	brge	.+32     	; 0x902 <__stack+0xa3>
     8e2:	8f 81       	ldd	r24, Y+7	; 0x07
     8e4:	98 85       	ldd	r25, Y+8	; 0x08
     8e6:	81 30       	cpi	r24, 0x01	; 1
     8e8:	91 05       	cpc	r25, r1
     8ea:	a1 f1       	breq	.+104    	; 0x954 <__stack+0xf5>
     8ec:	2f 81       	ldd	r18, Y+7	; 0x07
     8ee:	38 85       	ldd	r19, Y+8	; 0x08
     8f0:	22 30       	cpi	r18, 0x02	; 2
     8f2:	31 05       	cpc	r19, r1
     8f4:	0c f0       	brlt	.+2      	; 0x8f8 <__stack+0x99>
     8f6:	43 c0       	rjmp	.+134    	; 0x97e <__stack+0x11f>
     8f8:	8f 81       	ldd	r24, Y+7	; 0x07
     8fa:	98 85       	ldd	r25, Y+8	; 0x08
     8fc:	00 97       	sbiw	r24, 0x00	; 0
     8fe:	d1 f0       	breq	.+52     	; 0x934 <__stack+0xd5>
     900:	cb c1       	rjmp	.+918    	; 0xc98 <__stack+0x439>
     902:	2f 81       	ldd	r18, Y+7	; 0x07
     904:	38 85       	ldd	r19, Y+8	; 0x08
     906:	25 30       	cpi	r18, 0x05	; 5
     908:	31 05       	cpc	r19, r1
     90a:	09 f4       	brne	.+2      	; 0x90e <__stack+0xaf>
     90c:	81 c0       	rjmp	.+258    	; 0xa10 <__stack+0x1b1>
     90e:	8f 81       	ldd	r24, Y+7	; 0x07
     910:	98 85       	ldd	r25, Y+8	; 0x08
     912:	85 30       	cpi	r24, 0x05	; 5
     914:	91 05       	cpc	r25, r1
     916:	0c f4       	brge	.+2      	; 0x91a <__stack+0xbb>
     918:	62 c0       	rjmp	.+196    	; 0x9de <__stack+0x17f>
     91a:	2f 81       	ldd	r18, Y+7	; 0x07
     91c:	38 85       	ldd	r19, Y+8	; 0x08
     91e:	26 30       	cpi	r18, 0x06	; 6
     920:	31 05       	cpc	r19, r1
     922:	09 f4       	brne	.+2      	; 0x926 <__stack+0xc7>
     924:	90 c0       	rjmp	.+288    	; 0xa46 <__stack+0x1e7>
     926:	8f 81       	ldd	r24, Y+7	; 0x07
     928:	98 85       	ldd	r25, Y+8	; 0x08
     92a:	87 30       	cpi	r24, 0x07	; 7
     92c:	91 05       	cpc	r25, r1
     92e:	09 f4       	brne	.+2      	; 0x932 <__stack+0xd3>
     930:	a6 c0       	rjmp	.+332    	; 0xa7e <__stack+0x21f>
     932:	b2 c1       	rjmp	.+868    	; 0xc98 <__stack+0x439>
					{
					case DIO_PIN0:
						DDRC &= ~(1<<DIO_PIN0);
     934:	a4 e3       	ldi	r26, 0x34	; 52
     936:	b0 e0       	ldi	r27, 0x00	; 0
     938:	e4 e3       	ldi	r30, 0x34	; 52
     93a:	f0 e0       	ldi	r31, 0x00	; 0
     93c:	80 81       	ld	r24, Z
     93e:	8e 7f       	andi	r24, 0xFE	; 254
     940:	8c 93       	st	X, r24
						DDRC |=(Copy_u8Direction<<DIO_PIN0);break;
     942:	a4 e3       	ldi	r26, 0x34	; 52
     944:	b0 e0       	ldi	r27, 0x00	; 0
     946:	e4 e3       	ldi	r30, 0x34	; 52
     948:	f0 e0       	ldi	r31, 0x00	; 0
     94a:	90 81       	ld	r25, Z
     94c:	8c 81       	ldd	r24, Y+4	; 0x04
     94e:	89 2b       	or	r24, r25
     950:	8c 93       	st	X, r24
     952:	a2 c1       	rjmp	.+836    	; 0xc98 <__stack+0x439>
					case DIO_PIN1:
						DDRC &= ~(1<<DIO_PIN1);
     954:	a4 e3       	ldi	r26, 0x34	; 52
     956:	b0 e0       	ldi	r27, 0x00	; 0
     958:	e4 e3       	ldi	r30, 0x34	; 52
     95a:	f0 e0       	ldi	r31, 0x00	; 0
     95c:	80 81       	ld	r24, Z
     95e:	8d 7f       	andi	r24, 0xFD	; 253
     960:	8c 93       	st	X, r24
						DDRC |=(Copy_u8Direction<<DIO_PIN1);break;
     962:	a4 e3       	ldi	r26, 0x34	; 52
     964:	b0 e0       	ldi	r27, 0x00	; 0
     966:	e4 e3       	ldi	r30, 0x34	; 52
     968:	f0 e0       	ldi	r31, 0x00	; 0
     96a:	80 81       	ld	r24, Z
     96c:	28 2f       	mov	r18, r24
     96e:	8c 81       	ldd	r24, Y+4	; 0x04
     970:	88 2f       	mov	r24, r24
     972:	90 e0       	ldi	r25, 0x00	; 0
     974:	88 0f       	add	r24, r24
     976:	99 1f       	adc	r25, r25
     978:	82 2b       	or	r24, r18
     97a:	8c 93       	st	X, r24
     97c:	8d c1       	rjmp	.+794    	; 0xc98 <__stack+0x439>
					case DIO_PIN2:
						DDRC &= ~(1<<DIO_PIN2);
     97e:	a4 e3       	ldi	r26, 0x34	; 52
     980:	b0 e0       	ldi	r27, 0x00	; 0
     982:	e4 e3       	ldi	r30, 0x34	; 52
     984:	f0 e0       	ldi	r31, 0x00	; 0
     986:	80 81       	ld	r24, Z
     988:	8b 7f       	andi	r24, 0xFB	; 251
     98a:	8c 93       	st	X, r24
						DDRC |=(Copy_u8Direction<<DIO_PIN2);break;
     98c:	a4 e3       	ldi	r26, 0x34	; 52
     98e:	b0 e0       	ldi	r27, 0x00	; 0
     990:	e4 e3       	ldi	r30, 0x34	; 52
     992:	f0 e0       	ldi	r31, 0x00	; 0
     994:	80 81       	ld	r24, Z
     996:	28 2f       	mov	r18, r24
     998:	8c 81       	ldd	r24, Y+4	; 0x04
     99a:	88 2f       	mov	r24, r24
     99c:	90 e0       	ldi	r25, 0x00	; 0
     99e:	88 0f       	add	r24, r24
     9a0:	99 1f       	adc	r25, r25
     9a2:	88 0f       	add	r24, r24
     9a4:	99 1f       	adc	r25, r25
     9a6:	82 2b       	or	r24, r18
     9a8:	8c 93       	st	X, r24
     9aa:	76 c1       	rjmp	.+748    	; 0xc98 <__stack+0x439>
					case DIO_PIN3:
						DDRC &= ~(1<<DIO_PIN3);
     9ac:	a4 e3       	ldi	r26, 0x34	; 52
     9ae:	b0 e0       	ldi	r27, 0x00	; 0
     9b0:	e4 e3       	ldi	r30, 0x34	; 52
     9b2:	f0 e0       	ldi	r31, 0x00	; 0
     9b4:	80 81       	ld	r24, Z
     9b6:	87 7f       	andi	r24, 0xF7	; 247
     9b8:	8c 93       	st	X, r24
						DDRC |=(Copy_u8Direction<<DIO_PIN3);break;
     9ba:	a4 e3       	ldi	r26, 0x34	; 52
     9bc:	b0 e0       	ldi	r27, 0x00	; 0
     9be:	e4 e3       	ldi	r30, 0x34	; 52
     9c0:	f0 e0       	ldi	r31, 0x00	; 0
     9c2:	80 81       	ld	r24, Z
     9c4:	28 2f       	mov	r18, r24
     9c6:	8c 81       	ldd	r24, Y+4	; 0x04
     9c8:	88 2f       	mov	r24, r24
     9ca:	90 e0       	ldi	r25, 0x00	; 0
     9cc:	88 0f       	add	r24, r24
     9ce:	99 1f       	adc	r25, r25
     9d0:	88 0f       	add	r24, r24
     9d2:	99 1f       	adc	r25, r25
     9d4:	88 0f       	add	r24, r24
     9d6:	99 1f       	adc	r25, r25
     9d8:	82 2b       	or	r24, r18
     9da:	8c 93       	st	X, r24
     9dc:	5d c1       	rjmp	.+698    	; 0xc98 <__stack+0x439>
					case DIO_PIN4:
						DDRC &= ~(1<<DIO_PIN4);
     9de:	a4 e3       	ldi	r26, 0x34	; 52
     9e0:	b0 e0       	ldi	r27, 0x00	; 0
     9e2:	e4 e3       	ldi	r30, 0x34	; 52
     9e4:	f0 e0       	ldi	r31, 0x00	; 0
     9e6:	80 81       	ld	r24, Z
     9e8:	8f 7e       	andi	r24, 0xEF	; 239
     9ea:	8c 93       	st	X, r24
						DDRC |=(Copy_u8Direction<<DIO_PIN4);break;
     9ec:	a4 e3       	ldi	r26, 0x34	; 52
     9ee:	b0 e0       	ldi	r27, 0x00	; 0
     9f0:	e4 e3       	ldi	r30, 0x34	; 52
     9f2:	f0 e0       	ldi	r31, 0x00	; 0
     9f4:	80 81       	ld	r24, Z
     9f6:	28 2f       	mov	r18, r24
     9f8:	8c 81       	ldd	r24, Y+4	; 0x04
     9fa:	88 2f       	mov	r24, r24
     9fc:	90 e0       	ldi	r25, 0x00	; 0
     9fe:	82 95       	swap	r24
     a00:	92 95       	swap	r25
     a02:	90 7f       	andi	r25, 0xF0	; 240
     a04:	98 27       	eor	r25, r24
     a06:	80 7f       	andi	r24, 0xF0	; 240
     a08:	98 27       	eor	r25, r24
     a0a:	82 2b       	or	r24, r18
     a0c:	8c 93       	st	X, r24
     a0e:	44 c1       	rjmp	.+648    	; 0xc98 <__stack+0x439>
					case DIO_PIN5:
						DDRC &= ~(1<<DIO_PIN5);
     a10:	a4 e3       	ldi	r26, 0x34	; 52
     a12:	b0 e0       	ldi	r27, 0x00	; 0
     a14:	e4 e3       	ldi	r30, 0x34	; 52
     a16:	f0 e0       	ldi	r31, 0x00	; 0
     a18:	80 81       	ld	r24, Z
     a1a:	8f 7d       	andi	r24, 0xDF	; 223
     a1c:	8c 93       	st	X, r24
						DDRC |=(Copy_u8Direction<<DIO_PIN5);break;
     a1e:	a4 e3       	ldi	r26, 0x34	; 52
     a20:	b0 e0       	ldi	r27, 0x00	; 0
     a22:	e4 e3       	ldi	r30, 0x34	; 52
     a24:	f0 e0       	ldi	r31, 0x00	; 0
     a26:	80 81       	ld	r24, Z
     a28:	28 2f       	mov	r18, r24
     a2a:	8c 81       	ldd	r24, Y+4	; 0x04
     a2c:	88 2f       	mov	r24, r24
     a2e:	90 e0       	ldi	r25, 0x00	; 0
     a30:	88 0f       	add	r24, r24
     a32:	99 1f       	adc	r25, r25
     a34:	82 95       	swap	r24
     a36:	92 95       	swap	r25
     a38:	90 7f       	andi	r25, 0xF0	; 240
     a3a:	98 27       	eor	r25, r24
     a3c:	80 7f       	andi	r24, 0xF0	; 240
     a3e:	98 27       	eor	r25, r24
     a40:	82 2b       	or	r24, r18
     a42:	8c 93       	st	X, r24
     a44:	29 c1       	rjmp	.+594    	; 0xc98 <__stack+0x439>
					case DIO_PIN6:
						DDRC &= ~(1<<DIO_PIN6);
     a46:	a4 e3       	ldi	r26, 0x34	; 52
     a48:	b0 e0       	ldi	r27, 0x00	; 0
     a4a:	e4 e3       	ldi	r30, 0x34	; 52
     a4c:	f0 e0       	ldi	r31, 0x00	; 0
     a4e:	80 81       	ld	r24, Z
     a50:	8f 7b       	andi	r24, 0xBF	; 191
     a52:	8c 93       	st	X, r24
						DDRC |=(Copy_u8Direction<<DIO_PIN6);break;
     a54:	a4 e3       	ldi	r26, 0x34	; 52
     a56:	b0 e0       	ldi	r27, 0x00	; 0
     a58:	e4 e3       	ldi	r30, 0x34	; 52
     a5a:	f0 e0       	ldi	r31, 0x00	; 0
     a5c:	80 81       	ld	r24, Z
     a5e:	28 2f       	mov	r18, r24
     a60:	8c 81       	ldd	r24, Y+4	; 0x04
     a62:	88 2f       	mov	r24, r24
     a64:	90 e0       	ldi	r25, 0x00	; 0
     a66:	00 24       	eor	r0, r0
     a68:	96 95       	lsr	r25
     a6a:	87 95       	ror	r24
     a6c:	07 94       	ror	r0
     a6e:	96 95       	lsr	r25
     a70:	87 95       	ror	r24
     a72:	07 94       	ror	r0
     a74:	98 2f       	mov	r25, r24
     a76:	80 2d       	mov	r24, r0
     a78:	82 2b       	or	r24, r18
     a7a:	8c 93       	st	X, r24
     a7c:	0d c1       	rjmp	.+538    	; 0xc98 <__stack+0x439>
					case DIO_PIN7:
						DDRC &= ~(1<<DIO_PIN7);
     a7e:	a4 e3       	ldi	r26, 0x34	; 52
     a80:	b0 e0       	ldi	r27, 0x00	; 0
     a82:	e4 e3       	ldi	r30, 0x34	; 52
     a84:	f0 e0       	ldi	r31, 0x00	; 0
     a86:	80 81       	ld	r24, Z
     a88:	8f 77       	andi	r24, 0x7F	; 127
     a8a:	8c 93       	st	X, r24
						DDRC |=(Copy_u8Direction<<DIO_PIN7);break;
     a8c:	a4 e3       	ldi	r26, 0x34	; 52
     a8e:	b0 e0       	ldi	r27, 0x00	; 0
     a90:	e4 e3       	ldi	r30, 0x34	; 52
     a92:	f0 e0       	ldi	r31, 0x00	; 0
     a94:	80 81       	ld	r24, Z
     a96:	28 2f       	mov	r18, r24
     a98:	8c 81       	ldd	r24, Y+4	; 0x04
     a9a:	88 2f       	mov	r24, r24
     a9c:	90 e0       	ldi	r25, 0x00	; 0
     a9e:	96 95       	lsr	r25
     aa0:	98 2f       	mov	r25, r24
     aa2:	88 27       	eor	r24, r24
     aa4:	97 95       	ror	r25
     aa6:	87 95       	ror	r24
     aa8:	82 2b       	or	r24, r18
     aaa:	8c 93       	st	X, r24
     aac:	f5 c0       	rjmp	.+490    	; 0xc98 <__stack+0x439>
					}
					break;
					case DIO_PORTD://SelectFromPortD
						switch(Copy_u8PinId)
     aae:	8b 81       	ldd	r24, Y+3	; 0x03
     ab0:	28 2f       	mov	r18, r24
     ab2:	30 e0       	ldi	r19, 0x00	; 0
     ab4:	3e 83       	std	Y+6, r19	; 0x06
     ab6:	2d 83       	std	Y+5, r18	; 0x05
     ab8:	8d 81       	ldd	r24, Y+5	; 0x05
     aba:	9e 81       	ldd	r25, Y+6	; 0x06
     abc:	83 30       	cpi	r24, 0x03	; 3
     abe:	91 05       	cpc	r25, r1
     ac0:	09 f4       	brne	.+2      	; 0xac4 <__stack+0x265>
     ac2:	6a c0       	rjmp	.+212    	; 0xb98 <__stack+0x339>
     ac4:	2d 81       	ldd	r18, Y+5	; 0x05
     ac6:	3e 81       	ldd	r19, Y+6	; 0x06
     ac8:	24 30       	cpi	r18, 0x04	; 4
     aca:	31 05       	cpc	r19, r1
     acc:	84 f4       	brge	.+32     	; 0xaee <__stack+0x28f>
     ace:	8d 81       	ldd	r24, Y+5	; 0x05
     ad0:	9e 81       	ldd	r25, Y+6	; 0x06
     ad2:	81 30       	cpi	r24, 0x01	; 1
     ad4:	91 05       	cpc	r25, r1
     ad6:	a1 f1       	breq	.+104    	; 0xb40 <__stack+0x2e1>
     ad8:	2d 81       	ldd	r18, Y+5	; 0x05
     ada:	3e 81       	ldd	r19, Y+6	; 0x06
     adc:	22 30       	cpi	r18, 0x02	; 2
     ade:	31 05       	cpc	r19, r1
     ae0:	0c f0       	brlt	.+2      	; 0xae4 <__stack+0x285>
     ae2:	43 c0       	rjmp	.+134    	; 0xb6a <__stack+0x30b>
     ae4:	8d 81       	ldd	r24, Y+5	; 0x05
     ae6:	9e 81       	ldd	r25, Y+6	; 0x06
     ae8:	00 97       	sbiw	r24, 0x00	; 0
     aea:	d1 f0       	breq	.+52     	; 0xb20 <__stack+0x2c1>
     aec:	d5 c0       	rjmp	.+426    	; 0xc98 <__stack+0x439>
     aee:	2d 81       	ldd	r18, Y+5	; 0x05
     af0:	3e 81       	ldd	r19, Y+6	; 0x06
     af2:	25 30       	cpi	r18, 0x05	; 5
     af4:	31 05       	cpc	r19, r1
     af6:	09 f4       	brne	.+2      	; 0xafa <__stack+0x29b>
     af8:	81 c0       	rjmp	.+258    	; 0xbfc <__stack+0x39d>
     afa:	8d 81       	ldd	r24, Y+5	; 0x05
     afc:	9e 81       	ldd	r25, Y+6	; 0x06
     afe:	85 30       	cpi	r24, 0x05	; 5
     b00:	91 05       	cpc	r25, r1
     b02:	0c f4       	brge	.+2      	; 0xb06 <__stack+0x2a7>
     b04:	62 c0       	rjmp	.+196    	; 0xbca <__stack+0x36b>
     b06:	2d 81       	ldd	r18, Y+5	; 0x05
     b08:	3e 81       	ldd	r19, Y+6	; 0x06
     b0a:	26 30       	cpi	r18, 0x06	; 6
     b0c:	31 05       	cpc	r19, r1
     b0e:	09 f4       	brne	.+2      	; 0xb12 <__stack+0x2b3>
     b10:	90 c0       	rjmp	.+288    	; 0xc32 <__stack+0x3d3>
     b12:	8d 81       	ldd	r24, Y+5	; 0x05
     b14:	9e 81       	ldd	r25, Y+6	; 0x06
     b16:	87 30       	cpi	r24, 0x07	; 7
     b18:	91 05       	cpc	r25, r1
     b1a:	09 f4       	brne	.+2      	; 0xb1e <__stack+0x2bf>
     b1c:	a6 c0       	rjmp	.+332    	; 0xc6a <__stack+0x40b>
     b1e:	bc c0       	rjmp	.+376    	; 0xc98 <__stack+0x439>
						{
						case DIO_PIN0:
							DDRD &= ~(1<<DIO_PIN0);
     b20:	a1 e3       	ldi	r26, 0x31	; 49
     b22:	b0 e0       	ldi	r27, 0x00	; 0
     b24:	e1 e3       	ldi	r30, 0x31	; 49
     b26:	f0 e0       	ldi	r31, 0x00	; 0
     b28:	80 81       	ld	r24, Z
     b2a:	8e 7f       	andi	r24, 0xFE	; 254
     b2c:	8c 93       	st	X, r24
							DDRD |=(Copy_u8Direction<<DIO_PIN0);break;
     b2e:	a1 e3       	ldi	r26, 0x31	; 49
     b30:	b0 e0       	ldi	r27, 0x00	; 0
     b32:	e1 e3       	ldi	r30, 0x31	; 49
     b34:	f0 e0       	ldi	r31, 0x00	; 0
     b36:	90 81       	ld	r25, Z
     b38:	8c 81       	ldd	r24, Y+4	; 0x04
     b3a:	89 2b       	or	r24, r25
     b3c:	8c 93       	st	X, r24
     b3e:	ac c0       	rjmp	.+344    	; 0xc98 <__stack+0x439>
						case DIO_PIN1:
							DDRD &= ~(1<<DIO_PIN1);
     b40:	a1 e3       	ldi	r26, 0x31	; 49
     b42:	b0 e0       	ldi	r27, 0x00	; 0
     b44:	e1 e3       	ldi	r30, 0x31	; 49
     b46:	f0 e0       	ldi	r31, 0x00	; 0
     b48:	80 81       	ld	r24, Z
     b4a:	8d 7f       	andi	r24, 0xFD	; 253
     b4c:	8c 93       	st	X, r24
							DDRD |=(Copy_u8Direction<<DIO_PIN1);break;
     b4e:	a1 e3       	ldi	r26, 0x31	; 49
     b50:	b0 e0       	ldi	r27, 0x00	; 0
     b52:	e1 e3       	ldi	r30, 0x31	; 49
     b54:	f0 e0       	ldi	r31, 0x00	; 0
     b56:	80 81       	ld	r24, Z
     b58:	28 2f       	mov	r18, r24
     b5a:	8c 81       	ldd	r24, Y+4	; 0x04
     b5c:	88 2f       	mov	r24, r24
     b5e:	90 e0       	ldi	r25, 0x00	; 0
     b60:	88 0f       	add	r24, r24
     b62:	99 1f       	adc	r25, r25
     b64:	82 2b       	or	r24, r18
     b66:	8c 93       	st	X, r24
     b68:	97 c0       	rjmp	.+302    	; 0xc98 <__stack+0x439>
						case DIO_PIN2:
							DDRD &= ~(1<<DIO_PIN2);
     b6a:	a1 e3       	ldi	r26, 0x31	; 49
     b6c:	b0 e0       	ldi	r27, 0x00	; 0
     b6e:	e1 e3       	ldi	r30, 0x31	; 49
     b70:	f0 e0       	ldi	r31, 0x00	; 0
     b72:	80 81       	ld	r24, Z
     b74:	8b 7f       	andi	r24, 0xFB	; 251
     b76:	8c 93       	st	X, r24
							DDRD |=(Copy_u8Direction<<DIO_PIN2);break;
     b78:	a1 e3       	ldi	r26, 0x31	; 49
     b7a:	b0 e0       	ldi	r27, 0x00	; 0
     b7c:	e1 e3       	ldi	r30, 0x31	; 49
     b7e:	f0 e0       	ldi	r31, 0x00	; 0
     b80:	80 81       	ld	r24, Z
     b82:	28 2f       	mov	r18, r24
     b84:	8c 81       	ldd	r24, Y+4	; 0x04
     b86:	88 2f       	mov	r24, r24
     b88:	90 e0       	ldi	r25, 0x00	; 0
     b8a:	88 0f       	add	r24, r24
     b8c:	99 1f       	adc	r25, r25
     b8e:	88 0f       	add	r24, r24
     b90:	99 1f       	adc	r25, r25
     b92:	82 2b       	or	r24, r18
     b94:	8c 93       	st	X, r24
     b96:	80 c0       	rjmp	.+256    	; 0xc98 <__stack+0x439>
						case DIO_PIN3:
							DDRD &= ~(1<<DIO_PIN3);
     b98:	a1 e3       	ldi	r26, 0x31	; 49
     b9a:	b0 e0       	ldi	r27, 0x00	; 0
     b9c:	e1 e3       	ldi	r30, 0x31	; 49
     b9e:	f0 e0       	ldi	r31, 0x00	; 0
     ba0:	80 81       	ld	r24, Z
     ba2:	87 7f       	andi	r24, 0xF7	; 247
     ba4:	8c 93       	st	X, r24
							DDRD |=(Copy_u8Direction<<DIO_PIN3);break;
     ba6:	a1 e3       	ldi	r26, 0x31	; 49
     ba8:	b0 e0       	ldi	r27, 0x00	; 0
     baa:	e1 e3       	ldi	r30, 0x31	; 49
     bac:	f0 e0       	ldi	r31, 0x00	; 0
     bae:	80 81       	ld	r24, Z
     bb0:	28 2f       	mov	r18, r24
     bb2:	8c 81       	ldd	r24, Y+4	; 0x04
     bb4:	88 2f       	mov	r24, r24
     bb6:	90 e0       	ldi	r25, 0x00	; 0
     bb8:	88 0f       	add	r24, r24
     bba:	99 1f       	adc	r25, r25
     bbc:	88 0f       	add	r24, r24
     bbe:	99 1f       	adc	r25, r25
     bc0:	88 0f       	add	r24, r24
     bc2:	99 1f       	adc	r25, r25
     bc4:	82 2b       	or	r24, r18
     bc6:	8c 93       	st	X, r24
     bc8:	67 c0       	rjmp	.+206    	; 0xc98 <__stack+0x439>
						case DIO_PIN4:
							DDRD &= ~(1<<DIO_PIN4);
     bca:	a1 e3       	ldi	r26, 0x31	; 49
     bcc:	b0 e0       	ldi	r27, 0x00	; 0
     bce:	e1 e3       	ldi	r30, 0x31	; 49
     bd0:	f0 e0       	ldi	r31, 0x00	; 0
     bd2:	80 81       	ld	r24, Z
     bd4:	8f 7e       	andi	r24, 0xEF	; 239
     bd6:	8c 93       	st	X, r24
							DDRD |=(Copy_u8Direction<<DIO_PIN4);break;
     bd8:	a1 e3       	ldi	r26, 0x31	; 49
     bda:	b0 e0       	ldi	r27, 0x00	; 0
     bdc:	e1 e3       	ldi	r30, 0x31	; 49
     bde:	f0 e0       	ldi	r31, 0x00	; 0
     be0:	80 81       	ld	r24, Z
     be2:	28 2f       	mov	r18, r24
     be4:	8c 81       	ldd	r24, Y+4	; 0x04
     be6:	88 2f       	mov	r24, r24
     be8:	90 e0       	ldi	r25, 0x00	; 0
     bea:	82 95       	swap	r24
     bec:	92 95       	swap	r25
     bee:	90 7f       	andi	r25, 0xF0	; 240
     bf0:	98 27       	eor	r25, r24
     bf2:	80 7f       	andi	r24, 0xF0	; 240
     bf4:	98 27       	eor	r25, r24
     bf6:	82 2b       	or	r24, r18
     bf8:	8c 93       	st	X, r24
     bfa:	4e c0       	rjmp	.+156    	; 0xc98 <__stack+0x439>
						case DIO_PIN5:
							DDRD &= ~(1<<DIO_PIN5);
     bfc:	a1 e3       	ldi	r26, 0x31	; 49
     bfe:	b0 e0       	ldi	r27, 0x00	; 0
     c00:	e1 e3       	ldi	r30, 0x31	; 49
     c02:	f0 e0       	ldi	r31, 0x00	; 0
     c04:	80 81       	ld	r24, Z
     c06:	8f 7d       	andi	r24, 0xDF	; 223
     c08:	8c 93       	st	X, r24
							DDRD |=(Copy_u8Direction<<DIO_PIN5);break;
     c0a:	a1 e3       	ldi	r26, 0x31	; 49
     c0c:	b0 e0       	ldi	r27, 0x00	; 0
     c0e:	e1 e3       	ldi	r30, 0x31	; 49
     c10:	f0 e0       	ldi	r31, 0x00	; 0
     c12:	80 81       	ld	r24, Z
     c14:	28 2f       	mov	r18, r24
     c16:	8c 81       	ldd	r24, Y+4	; 0x04
     c18:	88 2f       	mov	r24, r24
     c1a:	90 e0       	ldi	r25, 0x00	; 0
     c1c:	88 0f       	add	r24, r24
     c1e:	99 1f       	adc	r25, r25
     c20:	82 95       	swap	r24
     c22:	92 95       	swap	r25
     c24:	90 7f       	andi	r25, 0xF0	; 240
     c26:	98 27       	eor	r25, r24
     c28:	80 7f       	andi	r24, 0xF0	; 240
     c2a:	98 27       	eor	r25, r24
     c2c:	82 2b       	or	r24, r18
     c2e:	8c 93       	st	X, r24
     c30:	33 c0       	rjmp	.+102    	; 0xc98 <__stack+0x439>
						case DIO_PIN6:
							DDRD &= ~(1<<DIO_PIN6);
     c32:	a1 e3       	ldi	r26, 0x31	; 49
     c34:	b0 e0       	ldi	r27, 0x00	; 0
     c36:	e1 e3       	ldi	r30, 0x31	; 49
     c38:	f0 e0       	ldi	r31, 0x00	; 0
     c3a:	80 81       	ld	r24, Z
     c3c:	8f 7b       	andi	r24, 0xBF	; 191
     c3e:	8c 93       	st	X, r24
							DDRD |=(Copy_u8Direction<<DIO_PIN6);break;
     c40:	a1 e3       	ldi	r26, 0x31	; 49
     c42:	b0 e0       	ldi	r27, 0x00	; 0
     c44:	e1 e3       	ldi	r30, 0x31	; 49
     c46:	f0 e0       	ldi	r31, 0x00	; 0
     c48:	80 81       	ld	r24, Z
     c4a:	28 2f       	mov	r18, r24
     c4c:	8c 81       	ldd	r24, Y+4	; 0x04
     c4e:	88 2f       	mov	r24, r24
     c50:	90 e0       	ldi	r25, 0x00	; 0
     c52:	00 24       	eor	r0, r0
     c54:	96 95       	lsr	r25
     c56:	87 95       	ror	r24
     c58:	07 94       	ror	r0
     c5a:	96 95       	lsr	r25
     c5c:	87 95       	ror	r24
     c5e:	07 94       	ror	r0
     c60:	98 2f       	mov	r25, r24
     c62:	80 2d       	mov	r24, r0
     c64:	82 2b       	or	r24, r18
     c66:	8c 93       	st	X, r24
     c68:	17 c0       	rjmp	.+46     	; 0xc98 <__stack+0x439>
						case DIO_PIN7:
							DDRD &= ~(1<<DIO_PIN7);
     c6a:	a1 e3       	ldi	r26, 0x31	; 49
     c6c:	b0 e0       	ldi	r27, 0x00	; 0
     c6e:	e1 e3       	ldi	r30, 0x31	; 49
     c70:	f0 e0       	ldi	r31, 0x00	; 0
     c72:	80 81       	ld	r24, Z
     c74:	8f 77       	andi	r24, 0x7F	; 127
     c76:	8c 93       	st	X, r24
							DDRD |=(Copy_u8Direction<<DIO_PIN7);break;
     c78:	a1 e3       	ldi	r26, 0x31	; 49
     c7a:	b0 e0       	ldi	r27, 0x00	; 0
     c7c:	e1 e3       	ldi	r30, 0x31	; 49
     c7e:	f0 e0       	ldi	r31, 0x00	; 0
     c80:	80 81       	ld	r24, Z
     c82:	28 2f       	mov	r18, r24
     c84:	8c 81       	ldd	r24, Y+4	; 0x04
     c86:	88 2f       	mov	r24, r24
     c88:	90 e0       	ldi	r25, 0x00	; 0
     c8a:	96 95       	lsr	r25
     c8c:	98 2f       	mov	r25, r24
     c8e:	88 27       	eor	r24, r24
     c90:	97 95       	ror	r25
     c92:	87 95       	ror	r24
     c94:	82 2b       	or	r24, r18
     c96:	8c 93       	st	X, r24

						}
						break;

		}
		Local_enuErrorState = ES_OK;
     c98:	19 82       	std	Y+1, r1	; 0x01
     c9a:	02 c0       	rjmp	.+4      	; 0xca0 <__stack+0x441>
	}
	else
	{
		Local_enuErrorState = ES_Out_Of_Range;
     c9c:	83 e0       	ldi	r24, 0x03	; 3
     c9e:	89 83       	std	Y+1, r24	; 0x01
	}



	return Local_enuErrorState;
     ca0:	89 81       	ldd	r24, Y+1	; 0x01
}
     ca2:	2e 96       	adiw	r28, 0x0e	; 14
     ca4:	0f b6       	in	r0, 0x3f	; 63
     ca6:	f8 94       	cli
     ca8:	de bf       	out	0x3e, r29	; 62
     caa:	0f be       	out	0x3f, r0	; 63
     cac:	cd bf       	out	0x3d, r28	; 61
     cae:	cf 91       	pop	r28
     cb0:	df 91       	pop	r29
     cb2:	08 95       	ret

00000cb4 <DIO_enuSetPinVal>:
ES_t DIO_enuSetPinVal(u8 Copy_u8PortId,u8 Copy_u8PinId,u8 Copy_u8Value)
{
     cb4:	df 93       	push	r29
     cb6:	cf 93       	push	r28
     cb8:	cd b7       	in	r28, 0x3d	; 61
     cba:	de b7       	in	r29, 0x3e	; 62
     cbc:	2e 97       	sbiw	r28, 0x0e	; 14
     cbe:	0f b6       	in	r0, 0x3f	; 63
     cc0:	f8 94       	cli
     cc2:	de bf       	out	0x3e, r29	; 62
     cc4:	0f be       	out	0x3f, r0	; 63
     cc6:	cd bf       	out	0x3d, r28	; 61
     cc8:	8a 83       	std	Y+2, r24	; 0x02
     cca:	6b 83       	std	Y+3, r22	; 0x03
     ccc:	4c 83       	std	Y+4, r20	; 0x04
	ES_t Local_enuErrorState = ES_NOK;
     cce:	81 e0       	ldi	r24, 0x01	; 1
     cd0:	89 83       	std	Y+1, r24	; 0x01

	if(Copy_u8PortId <= DIO_PORTD && Copy_u8PinId<= DIO_PIN7)
     cd2:	8a 81       	ldd	r24, Y+2	; 0x02
     cd4:	84 30       	cpi	r24, 0x04	; 4
     cd6:	08 f0       	brcs	.+2      	; 0xcda <DIO_enuSetPinVal+0x26>
     cd8:	ff c3       	rjmp	.+2046   	; 0x14d8 <DIO_enuSetPinVal+0x824>
     cda:	8b 81       	ldd	r24, Y+3	; 0x03
     cdc:	88 30       	cpi	r24, 0x08	; 8
     cde:	08 f0       	brcs	.+2      	; 0xce2 <DIO_enuSetPinVal+0x2e>
     ce0:	fb c3       	rjmp	.+2038   	; 0x14d8 <DIO_enuSetPinVal+0x824>
	{
		switch(Copy_u8PortId)
     ce2:	8a 81       	ldd	r24, Y+2	; 0x02
     ce4:	28 2f       	mov	r18, r24
     ce6:	30 e0       	ldi	r19, 0x00	; 0
     ce8:	3e 87       	std	Y+14, r19	; 0x0e
     cea:	2d 87       	std	Y+13, r18	; 0x0d
     cec:	8d 85       	ldd	r24, Y+13	; 0x0d
     cee:	9e 85       	ldd	r25, Y+14	; 0x0e
     cf0:	81 30       	cpi	r24, 0x01	; 1
     cf2:	91 05       	cpc	r25, r1
     cf4:	09 f4       	brne	.+2      	; 0xcf8 <DIO_enuSetPinVal+0x44>
     cf6:	0d c1       	rjmp	.+538    	; 0xf12 <DIO_enuSetPinVal+0x25e>
     cf8:	2d 85       	ldd	r18, Y+13	; 0x0d
     cfa:	3e 85       	ldd	r19, Y+14	; 0x0e
     cfc:	22 30       	cpi	r18, 0x02	; 2
     cfe:	31 05       	cpc	r19, r1
     d00:	2c f4       	brge	.+10     	; 0xd0c <DIO_enuSetPinVal+0x58>
     d02:	8d 85       	ldd	r24, Y+13	; 0x0d
     d04:	9e 85       	ldd	r25, Y+14	; 0x0e
     d06:	00 97       	sbiw	r24, 0x00	; 0
     d08:	71 f0       	breq	.+28     	; 0xd26 <DIO_enuSetPinVal+0x72>
     d0a:	e4 c3       	rjmp	.+1992   	; 0x14d4 <DIO_enuSetPinVal+0x820>
     d0c:	2d 85       	ldd	r18, Y+13	; 0x0d
     d0e:	3e 85       	ldd	r19, Y+14	; 0x0e
     d10:	22 30       	cpi	r18, 0x02	; 2
     d12:	31 05       	cpc	r19, r1
     d14:	09 f4       	brne	.+2      	; 0xd18 <DIO_enuSetPinVal+0x64>
     d16:	f3 c1       	rjmp	.+998    	; 0x10fe <DIO_enuSetPinVal+0x44a>
     d18:	8d 85       	ldd	r24, Y+13	; 0x0d
     d1a:	9e 85       	ldd	r25, Y+14	; 0x0e
     d1c:	83 30       	cpi	r24, 0x03	; 3
     d1e:	91 05       	cpc	r25, r1
     d20:	09 f4       	brne	.+2      	; 0xd24 <DIO_enuSetPinVal+0x70>
     d22:	e3 c2       	rjmp	.+1478   	; 0x12ea <DIO_enuSetPinVal+0x636>
     d24:	d7 c3       	rjmp	.+1966   	; 0x14d4 <DIO_enuSetPinVal+0x820>
		{
		case DIO_PORTA://SelectFromPortA
			switch(Copy_u8PinId)
     d26:	8b 81       	ldd	r24, Y+3	; 0x03
     d28:	28 2f       	mov	r18, r24
     d2a:	30 e0       	ldi	r19, 0x00	; 0
     d2c:	3c 87       	std	Y+12, r19	; 0x0c
     d2e:	2b 87       	std	Y+11, r18	; 0x0b
     d30:	8b 85       	ldd	r24, Y+11	; 0x0b
     d32:	9c 85       	ldd	r25, Y+12	; 0x0c
     d34:	83 30       	cpi	r24, 0x03	; 3
     d36:	91 05       	cpc	r25, r1
     d38:	09 f4       	brne	.+2      	; 0xd3c <DIO_enuSetPinVal+0x88>
     d3a:	6a c0       	rjmp	.+212    	; 0xe10 <DIO_enuSetPinVal+0x15c>
     d3c:	2b 85       	ldd	r18, Y+11	; 0x0b
     d3e:	3c 85       	ldd	r19, Y+12	; 0x0c
     d40:	24 30       	cpi	r18, 0x04	; 4
     d42:	31 05       	cpc	r19, r1
     d44:	84 f4       	brge	.+32     	; 0xd66 <DIO_enuSetPinVal+0xb2>
     d46:	8b 85       	ldd	r24, Y+11	; 0x0b
     d48:	9c 85       	ldd	r25, Y+12	; 0x0c
     d4a:	81 30       	cpi	r24, 0x01	; 1
     d4c:	91 05       	cpc	r25, r1
     d4e:	a1 f1       	breq	.+104    	; 0xdb8 <DIO_enuSetPinVal+0x104>
     d50:	2b 85       	ldd	r18, Y+11	; 0x0b
     d52:	3c 85       	ldd	r19, Y+12	; 0x0c
     d54:	22 30       	cpi	r18, 0x02	; 2
     d56:	31 05       	cpc	r19, r1
     d58:	0c f0       	brlt	.+2      	; 0xd5c <DIO_enuSetPinVal+0xa8>
     d5a:	43 c0       	rjmp	.+134    	; 0xde2 <DIO_enuSetPinVal+0x12e>
     d5c:	8b 85       	ldd	r24, Y+11	; 0x0b
     d5e:	9c 85       	ldd	r25, Y+12	; 0x0c
     d60:	00 97       	sbiw	r24, 0x00	; 0
     d62:	d1 f0       	breq	.+52     	; 0xd98 <DIO_enuSetPinVal+0xe4>
     d64:	b7 c3       	rjmp	.+1902   	; 0x14d4 <DIO_enuSetPinVal+0x820>
     d66:	2b 85       	ldd	r18, Y+11	; 0x0b
     d68:	3c 85       	ldd	r19, Y+12	; 0x0c
     d6a:	25 30       	cpi	r18, 0x05	; 5
     d6c:	31 05       	cpc	r19, r1
     d6e:	09 f4       	brne	.+2      	; 0xd72 <DIO_enuSetPinVal+0xbe>
     d70:	81 c0       	rjmp	.+258    	; 0xe74 <DIO_enuSetPinVal+0x1c0>
     d72:	8b 85       	ldd	r24, Y+11	; 0x0b
     d74:	9c 85       	ldd	r25, Y+12	; 0x0c
     d76:	85 30       	cpi	r24, 0x05	; 5
     d78:	91 05       	cpc	r25, r1
     d7a:	0c f4       	brge	.+2      	; 0xd7e <DIO_enuSetPinVal+0xca>
     d7c:	62 c0       	rjmp	.+196    	; 0xe42 <DIO_enuSetPinVal+0x18e>
     d7e:	2b 85       	ldd	r18, Y+11	; 0x0b
     d80:	3c 85       	ldd	r19, Y+12	; 0x0c
     d82:	26 30       	cpi	r18, 0x06	; 6
     d84:	31 05       	cpc	r19, r1
     d86:	09 f4       	brne	.+2      	; 0xd8a <DIO_enuSetPinVal+0xd6>
     d88:	90 c0       	rjmp	.+288    	; 0xeaa <DIO_enuSetPinVal+0x1f6>
     d8a:	8b 85       	ldd	r24, Y+11	; 0x0b
     d8c:	9c 85       	ldd	r25, Y+12	; 0x0c
     d8e:	87 30       	cpi	r24, 0x07	; 7
     d90:	91 05       	cpc	r25, r1
     d92:	09 f4       	brne	.+2      	; 0xd96 <DIO_enuSetPinVal+0xe2>
     d94:	a6 c0       	rjmp	.+332    	; 0xee2 <DIO_enuSetPinVal+0x22e>
     d96:	9e c3       	rjmp	.+1852   	; 0x14d4 <DIO_enuSetPinVal+0x820>
			{
			case DIO_PIN0:
				PORTA &= ~(1<<DIO_PIN0);
     d98:	ab e3       	ldi	r26, 0x3B	; 59
     d9a:	b0 e0       	ldi	r27, 0x00	; 0
     d9c:	eb e3       	ldi	r30, 0x3B	; 59
     d9e:	f0 e0       	ldi	r31, 0x00	; 0
     da0:	80 81       	ld	r24, Z
     da2:	8e 7f       	andi	r24, 0xFE	; 254
     da4:	8c 93       	st	X, r24
				PORTA |=(Copy_u8Value<<DIO_PIN0);break;
     da6:	ab e3       	ldi	r26, 0x3B	; 59
     da8:	b0 e0       	ldi	r27, 0x00	; 0
     daa:	eb e3       	ldi	r30, 0x3B	; 59
     dac:	f0 e0       	ldi	r31, 0x00	; 0
     dae:	90 81       	ld	r25, Z
     db0:	8c 81       	ldd	r24, Y+4	; 0x04
     db2:	89 2b       	or	r24, r25
     db4:	8c 93       	st	X, r24
     db6:	8e c3       	rjmp	.+1820   	; 0x14d4 <DIO_enuSetPinVal+0x820>
			case DIO_PIN1:
				PORTA &= ~(1<<DIO_PIN1);
     db8:	ab e3       	ldi	r26, 0x3B	; 59
     dba:	b0 e0       	ldi	r27, 0x00	; 0
     dbc:	eb e3       	ldi	r30, 0x3B	; 59
     dbe:	f0 e0       	ldi	r31, 0x00	; 0
     dc0:	80 81       	ld	r24, Z
     dc2:	8d 7f       	andi	r24, 0xFD	; 253
     dc4:	8c 93       	st	X, r24
				PORTA |=(Copy_u8Value<<DIO_PIN1);break;
     dc6:	ab e3       	ldi	r26, 0x3B	; 59
     dc8:	b0 e0       	ldi	r27, 0x00	; 0
     dca:	eb e3       	ldi	r30, 0x3B	; 59
     dcc:	f0 e0       	ldi	r31, 0x00	; 0
     dce:	80 81       	ld	r24, Z
     dd0:	28 2f       	mov	r18, r24
     dd2:	8c 81       	ldd	r24, Y+4	; 0x04
     dd4:	88 2f       	mov	r24, r24
     dd6:	90 e0       	ldi	r25, 0x00	; 0
     dd8:	88 0f       	add	r24, r24
     dda:	99 1f       	adc	r25, r25
     ddc:	82 2b       	or	r24, r18
     dde:	8c 93       	st	X, r24
     de0:	79 c3       	rjmp	.+1778   	; 0x14d4 <DIO_enuSetPinVal+0x820>
			case DIO_PIN2:
				PORTA &= ~(1<<DIO_PIN2);
     de2:	ab e3       	ldi	r26, 0x3B	; 59
     de4:	b0 e0       	ldi	r27, 0x00	; 0
     de6:	eb e3       	ldi	r30, 0x3B	; 59
     de8:	f0 e0       	ldi	r31, 0x00	; 0
     dea:	80 81       	ld	r24, Z
     dec:	8b 7f       	andi	r24, 0xFB	; 251
     dee:	8c 93       	st	X, r24
				PORTA |=(Copy_u8Value<<DIO_PIN2);break;
     df0:	ab e3       	ldi	r26, 0x3B	; 59
     df2:	b0 e0       	ldi	r27, 0x00	; 0
     df4:	eb e3       	ldi	r30, 0x3B	; 59
     df6:	f0 e0       	ldi	r31, 0x00	; 0
     df8:	80 81       	ld	r24, Z
     dfa:	28 2f       	mov	r18, r24
     dfc:	8c 81       	ldd	r24, Y+4	; 0x04
     dfe:	88 2f       	mov	r24, r24
     e00:	90 e0       	ldi	r25, 0x00	; 0
     e02:	88 0f       	add	r24, r24
     e04:	99 1f       	adc	r25, r25
     e06:	88 0f       	add	r24, r24
     e08:	99 1f       	adc	r25, r25
     e0a:	82 2b       	or	r24, r18
     e0c:	8c 93       	st	X, r24
     e0e:	62 c3       	rjmp	.+1732   	; 0x14d4 <DIO_enuSetPinVal+0x820>
			case DIO_PIN3:
				PORTA &= ~(1<<DIO_PIN3);
     e10:	ab e3       	ldi	r26, 0x3B	; 59
     e12:	b0 e0       	ldi	r27, 0x00	; 0
     e14:	eb e3       	ldi	r30, 0x3B	; 59
     e16:	f0 e0       	ldi	r31, 0x00	; 0
     e18:	80 81       	ld	r24, Z
     e1a:	87 7f       	andi	r24, 0xF7	; 247
     e1c:	8c 93       	st	X, r24
				PORTA |=(Copy_u8Value<<DIO_PIN3);break;
     e1e:	ab e3       	ldi	r26, 0x3B	; 59
     e20:	b0 e0       	ldi	r27, 0x00	; 0
     e22:	eb e3       	ldi	r30, 0x3B	; 59
     e24:	f0 e0       	ldi	r31, 0x00	; 0
     e26:	80 81       	ld	r24, Z
     e28:	28 2f       	mov	r18, r24
     e2a:	8c 81       	ldd	r24, Y+4	; 0x04
     e2c:	88 2f       	mov	r24, r24
     e2e:	90 e0       	ldi	r25, 0x00	; 0
     e30:	88 0f       	add	r24, r24
     e32:	99 1f       	adc	r25, r25
     e34:	88 0f       	add	r24, r24
     e36:	99 1f       	adc	r25, r25
     e38:	88 0f       	add	r24, r24
     e3a:	99 1f       	adc	r25, r25
     e3c:	82 2b       	or	r24, r18
     e3e:	8c 93       	st	X, r24
     e40:	49 c3       	rjmp	.+1682   	; 0x14d4 <DIO_enuSetPinVal+0x820>
			case DIO_PIN4:
				PORTA &= ~(1<<DIO_PIN4);
     e42:	ab e3       	ldi	r26, 0x3B	; 59
     e44:	b0 e0       	ldi	r27, 0x00	; 0
     e46:	eb e3       	ldi	r30, 0x3B	; 59
     e48:	f0 e0       	ldi	r31, 0x00	; 0
     e4a:	80 81       	ld	r24, Z
     e4c:	8f 7e       	andi	r24, 0xEF	; 239
     e4e:	8c 93       	st	X, r24
				PORTA |=(Copy_u8Value<<DIO_PIN4);break;
     e50:	ab e3       	ldi	r26, 0x3B	; 59
     e52:	b0 e0       	ldi	r27, 0x00	; 0
     e54:	eb e3       	ldi	r30, 0x3B	; 59
     e56:	f0 e0       	ldi	r31, 0x00	; 0
     e58:	80 81       	ld	r24, Z
     e5a:	28 2f       	mov	r18, r24
     e5c:	8c 81       	ldd	r24, Y+4	; 0x04
     e5e:	88 2f       	mov	r24, r24
     e60:	90 e0       	ldi	r25, 0x00	; 0
     e62:	82 95       	swap	r24
     e64:	92 95       	swap	r25
     e66:	90 7f       	andi	r25, 0xF0	; 240
     e68:	98 27       	eor	r25, r24
     e6a:	80 7f       	andi	r24, 0xF0	; 240
     e6c:	98 27       	eor	r25, r24
     e6e:	82 2b       	or	r24, r18
     e70:	8c 93       	st	X, r24
     e72:	30 c3       	rjmp	.+1632   	; 0x14d4 <DIO_enuSetPinVal+0x820>
			case DIO_PIN5:
				PORTA &= ~(1<<DIO_PIN5);
     e74:	ab e3       	ldi	r26, 0x3B	; 59
     e76:	b0 e0       	ldi	r27, 0x00	; 0
     e78:	eb e3       	ldi	r30, 0x3B	; 59
     e7a:	f0 e0       	ldi	r31, 0x00	; 0
     e7c:	80 81       	ld	r24, Z
     e7e:	8f 7d       	andi	r24, 0xDF	; 223
     e80:	8c 93       	st	X, r24
				PORTA |=(Copy_u8Value<<DIO_PIN5);break;
     e82:	ab e3       	ldi	r26, 0x3B	; 59
     e84:	b0 e0       	ldi	r27, 0x00	; 0
     e86:	eb e3       	ldi	r30, 0x3B	; 59
     e88:	f0 e0       	ldi	r31, 0x00	; 0
     e8a:	80 81       	ld	r24, Z
     e8c:	28 2f       	mov	r18, r24
     e8e:	8c 81       	ldd	r24, Y+4	; 0x04
     e90:	88 2f       	mov	r24, r24
     e92:	90 e0       	ldi	r25, 0x00	; 0
     e94:	88 0f       	add	r24, r24
     e96:	99 1f       	adc	r25, r25
     e98:	82 95       	swap	r24
     e9a:	92 95       	swap	r25
     e9c:	90 7f       	andi	r25, 0xF0	; 240
     e9e:	98 27       	eor	r25, r24
     ea0:	80 7f       	andi	r24, 0xF0	; 240
     ea2:	98 27       	eor	r25, r24
     ea4:	82 2b       	or	r24, r18
     ea6:	8c 93       	st	X, r24
     ea8:	15 c3       	rjmp	.+1578   	; 0x14d4 <DIO_enuSetPinVal+0x820>
			case DIO_PIN6:
				PORTA &= ~(1<<DIO_PIN6);
     eaa:	ab e3       	ldi	r26, 0x3B	; 59
     eac:	b0 e0       	ldi	r27, 0x00	; 0
     eae:	eb e3       	ldi	r30, 0x3B	; 59
     eb0:	f0 e0       	ldi	r31, 0x00	; 0
     eb2:	80 81       	ld	r24, Z
     eb4:	8f 7b       	andi	r24, 0xBF	; 191
     eb6:	8c 93       	st	X, r24
				PORTA |=(Copy_u8Value<<DIO_PIN6);break;
     eb8:	ab e3       	ldi	r26, 0x3B	; 59
     eba:	b0 e0       	ldi	r27, 0x00	; 0
     ebc:	eb e3       	ldi	r30, 0x3B	; 59
     ebe:	f0 e0       	ldi	r31, 0x00	; 0
     ec0:	80 81       	ld	r24, Z
     ec2:	28 2f       	mov	r18, r24
     ec4:	8c 81       	ldd	r24, Y+4	; 0x04
     ec6:	88 2f       	mov	r24, r24
     ec8:	90 e0       	ldi	r25, 0x00	; 0
     eca:	00 24       	eor	r0, r0
     ecc:	96 95       	lsr	r25
     ece:	87 95       	ror	r24
     ed0:	07 94       	ror	r0
     ed2:	96 95       	lsr	r25
     ed4:	87 95       	ror	r24
     ed6:	07 94       	ror	r0
     ed8:	98 2f       	mov	r25, r24
     eda:	80 2d       	mov	r24, r0
     edc:	82 2b       	or	r24, r18
     ede:	8c 93       	st	X, r24
     ee0:	f9 c2       	rjmp	.+1522   	; 0x14d4 <DIO_enuSetPinVal+0x820>
			case DIO_PIN7:
				PORTA &= ~(1<<DIO_PIN7);
     ee2:	ab e3       	ldi	r26, 0x3B	; 59
     ee4:	b0 e0       	ldi	r27, 0x00	; 0
     ee6:	eb e3       	ldi	r30, 0x3B	; 59
     ee8:	f0 e0       	ldi	r31, 0x00	; 0
     eea:	80 81       	ld	r24, Z
     eec:	8f 77       	andi	r24, 0x7F	; 127
     eee:	8c 93       	st	X, r24
				PORTA |=(Copy_u8Value<<DIO_PIN7);break;
     ef0:	ab e3       	ldi	r26, 0x3B	; 59
     ef2:	b0 e0       	ldi	r27, 0x00	; 0
     ef4:	eb e3       	ldi	r30, 0x3B	; 59
     ef6:	f0 e0       	ldi	r31, 0x00	; 0
     ef8:	80 81       	ld	r24, Z
     efa:	28 2f       	mov	r18, r24
     efc:	8c 81       	ldd	r24, Y+4	; 0x04
     efe:	88 2f       	mov	r24, r24
     f00:	90 e0       	ldi	r25, 0x00	; 0
     f02:	96 95       	lsr	r25
     f04:	98 2f       	mov	r25, r24
     f06:	88 27       	eor	r24, r24
     f08:	97 95       	ror	r25
     f0a:	87 95       	ror	r24
     f0c:	82 2b       	or	r24, r18
     f0e:	8c 93       	st	X, r24
     f10:	e1 c2       	rjmp	.+1474   	; 0x14d4 <DIO_enuSetPinVal+0x820>

			}
			break;
			case DIO_PORTB://SelectFromPortB
				switch(Copy_u8PinId)
     f12:	8b 81       	ldd	r24, Y+3	; 0x03
     f14:	28 2f       	mov	r18, r24
     f16:	30 e0       	ldi	r19, 0x00	; 0
     f18:	3a 87       	std	Y+10, r19	; 0x0a
     f1a:	29 87       	std	Y+9, r18	; 0x09
     f1c:	89 85       	ldd	r24, Y+9	; 0x09
     f1e:	9a 85       	ldd	r25, Y+10	; 0x0a
     f20:	83 30       	cpi	r24, 0x03	; 3
     f22:	91 05       	cpc	r25, r1
     f24:	09 f4       	brne	.+2      	; 0xf28 <DIO_enuSetPinVal+0x274>
     f26:	6a c0       	rjmp	.+212    	; 0xffc <DIO_enuSetPinVal+0x348>
     f28:	29 85       	ldd	r18, Y+9	; 0x09
     f2a:	3a 85       	ldd	r19, Y+10	; 0x0a
     f2c:	24 30       	cpi	r18, 0x04	; 4
     f2e:	31 05       	cpc	r19, r1
     f30:	84 f4       	brge	.+32     	; 0xf52 <DIO_enuSetPinVal+0x29e>
     f32:	89 85       	ldd	r24, Y+9	; 0x09
     f34:	9a 85       	ldd	r25, Y+10	; 0x0a
     f36:	81 30       	cpi	r24, 0x01	; 1
     f38:	91 05       	cpc	r25, r1
     f3a:	a1 f1       	breq	.+104    	; 0xfa4 <DIO_enuSetPinVal+0x2f0>
     f3c:	29 85       	ldd	r18, Y+9	; 0x09
     f3e:	3a 85       	ldd	r19, Y+10	; 0x0a
     f40:	22 30       	cpi	r18, 0x02	; 2
     f42:	31 05       	cpc	r19, r1
     f44:	0c f0       	brlt	.+2      	; 0xf48 <DIO_enuSetPinVal+0x294>
     f46:	43 c0       	rjmp	.+134    	; 0xfce <DIO_enuSetPinVal+0x31a>
     f48:	89 85       	ldd	r24, Y+9	; 0x09
     f4a:	9a 85       	ldd	r25, Y+10	; 0x0a
     f4c:	00 97       	sbiw	r24, 0x00	; 0
     f4e:	d1 f0       	breq	.+52     	; 0xf84 <DIO_enuSetPinVal+0x2d0>
     f50:	c1 c2       	rjmp	.+1410   	; 0x14d4 <DIO_enuSetPinVal+0x820>
     f52:	29 85       	ldd	r18, Y+9	; 0x09
     f54:	3a 85       	ldd	r19, Y+10	; 0x0a
     f56:	25 30       	cpi	r18, 0x05	; 5
     f58:	31 05       	cpc	r19, r1
     f5a:	09 f4       	brne	.+2      	; 0xf5e <DIO_enuSetPinVal+0x2aa>
     f5c:	81 c0       	rjmp	.+258    	; 0x1060 <DIO_enuSetPinVal+0x3ac>
     f5e:	89 85       	ldd	r24, Y+9	; 0x09
     f60:	9a 85       	ldd	r25, Y+10	; 0x0a
     f62:	85 30       	cpi	r24, 0x05	; 5
     f64:	91 05       	cpc	r25, r1
     f66:	0c f4       	brge	.+2      	; 0xf6a <DIO_enuSetPinVal+0x2b6>
     f68:	62 c0       	rjmp	.+196    	; 0x102e <DIO_enuSetPinVal+0x37a>
     f6a:	29 85       	ldd	r18, Y+9	; 0x09
     f6c:	3a 85       	ldd	r19, Y+10	; 0x0a
     f6e:	26 30       	cpi	r18, 0x06	; 6
     f70:	31 05       	cpc	r19, r1
     f72:	09 f4       	brne	.+2      	; 0xf76 <DIO_enuSetPinVal+0x2c2>
     f74:	90 c0       	rjmp	.+288    	; 0x1096 <DIO_enuSetPinVal+0x3e2>
     f76:	89 85       	ldd	r24, Y+9	; 0x09
     f78:	9a 85       	ldd	r25, Y+10	; 0x0a
     f7a:	87 30       	cpi	r24, 0x07	; 7
     f7c:	91 05       	cpc	r25, r1
     f7e:	09 f4       	brne	.+2      	; 0xf82 <DIO_enuSetPinVal+0x2ce>
     f80:	a6 c0       	rjmp	.+332    	; 0x10ce <DIO_enuSetPinVal+0x41a>
     f82:	a8 c2       	rjmp	.+1360   	; 0x14d4 <DIO_enuSetPinVal+0x820>
				{
				case DIO_PIN0:
					PORTB &= ~(1<<DIO_PIN0);
     f84:	a8 e3       	ldi	r26, 0x38	; 56
     f86:	b0 e0       	ldi	r27, 0x00	; 0
     f88:	e8 e3       	ldi	r30, 0x38	; 56
     f8a:	f0 e0       	ldi	r31, 0x00	; 0
     f8c:	80 81       	ld	r24, Z
     f8e:	8e 7f       	andi	r24, 0xFE	; 254
     f90:	8c 93       	st	X, r24
					PORTB |=(Copy_u8Value<<DIO_PIN0);break;
     f92:	a8 e3       	ldi	r26, 0x38	; 56
     f94:	b0 e0       	ldi	r27, 0x00	; 0
     f96:	e8 e3       	ldi	r30, 0x38	; 56
     f98:	f0 e0       	ldi	r31, 0x00	; 0
     f9a:	90 81       	ld	r25, Z
     f9c:	8c 81       	ldd	r24, Y+4	; 0x04
     f9e:	89 2b       	or	r24, r25
     fa0:	8c 93       	st	X, r24
     fa2:	98 c2       	rjmp	.+1328   	; 0x14d4 <DIO_enuSetPinVal+0x820>
				case DIO_PIN1:
					PORTB &= ~(1<<DIO_PIN1);
     fa4:	a8 e3       	ldi	r26, 0x38	; 56
     fa6:	b0 e0       	ldi	r27, 0x00	; 0
     fa8:	e8 e3       	ldi	r30, 0x38	; 56
     faa:	f0 e0       	ldi	r31, 0x00	; 0
     fac:	80 81       	ld	r24, Z
     fae:	8d 7f       	andi	r24, 0xFD	; 253
     fb0:	8c 93       	st	X, r24
					PORTB |=(Copy_u8Value<<DIO_PIN1);break;
     fb2:	a8 e3       	ldi	r26, 0x38	; 56
     fb4:	b0 e0       	ldi	r27, 0x00	; 0
     fb6:	e8 e3       	ldi	r30, 0x38	; 56
     fb8:	f0 e0       	ldi	r31, 0x00	; 0
     fba:	80 81       	ld	r24, Z
     fbc:	28 2f       	mov	r18, r24
     fbe:	8c 81       	ldd	r24, Y+4	; 0x04
     fc0:	88 2f       	mov	r24, r24
     fc2:	90 e0       	ldi	r25, 0x00	; 0
     fc4:	88 0f       	add	r24, r24
     fc6:	99 1f       	adc	r25, r25
     fc8:	82 2b       	or	r24, r18
     fca:	8c 93       	st	X, r24
     fcc:	83 c2       	rjmp	.+1286   	; 0x14d4 <DIO_enuSetPinVal+0x820>
				case DIO_PIN2:
					PORTB &= ~(1<<DIO_PIN2);
     fce:	a8 e3       	ldi	r26, 0x38	; 56
     fd0:	b0 e0       	ldi	r27, 0x00	; 0
     fd2:	e8 e3       	ldi	r30, 0x38	; 56
     fd4:	f0 e0       	ldi	r31, 0x00	; 0
     fd6:	80 81       	ld	r24, Z
     fd8:	8b 7f       	andi	r24, 0xFB	; 251
     fda:	8c 93       	st	X, r24
					PORTB |=(Copy_u8Value<<DIO_PIN2);break;
     fdc:	a8 e3       	ldi	r26, 0x38	; 56
     fde:	b0 e0       	ldi	r27, 0x00	; 0
     fe0:	e8 e3       	ldi	r30, 0x38	; 56
     fe2:	f0 e0       	ldi	r31, 0x00	; 0
     fe4:	80 81       	ld	r24, Z
     fe6:	28 2f       	mov	r18, r24
     fe8:	8c 81       	ldd	r24, Y+4	; 0x04
     fea:	88 2f       	mov	r24, r24
     fec:	90 e0       	ldi	r25, 0x00	; 0
     fee:	88 0f       	add	r24, r24
     ff0:	99 1f       	adc	r25, r25
     ff2:	88 0f       	add	r24, r24
     ff4:	99 1f       	adc	r25, r25
     ff6:	82 2b       	or	r24, r18
     ff8:	8c 93       	st	X, r24
     ffa:	6c c2       	rjmp	.+1240   	; 0x14d4 <DIO_enuSetPinVal+0x820>
				case DIO_PIN3:
					PORTB &= ~(1<<DIO_PIN3);
     ffc:	a8 e3       	ldi	r26, 0x38	; 56
     ffe:	b0 e0       	ldi	r27, 0x00	; 0
    1000:	e8 e3       	ldi	r30, 0x38	; 56
    1002:	f0 e0       	ldi	r31, 0x00	; 0
    1004:	80 81       	ld	r24, Z
    1006:	87 7f       	andi	r24, 0xF7	; 247
    1008:	8c 93       	st	X, r24
					PORTB |=(Copy_u8Value<<DIO_PIN3);break;
    100a:	a8 e3       	ldi	r26, 0x38	; 56
    100c:	b0 e0       	ldi	r27, 0x00	; 0
    100e:	e8 e3       	ldi	r30, 0x38	; 56
    1010:	f0 e0       	ldi	r31, 0x00	; 0
    1012:	80 81       	ld	r24, Z
    1014:	28 2f       	mov	r18, r24
    1016:	8c 81       	ldd	r24, Y+4	; 0x04
    1018:	88 2f       	mov	r24, r24
    101a:	90 e0       	ldi	r25, 0x00	; 0
    101c:	88 0f       	add	r24, r24
    101e:	99 1f       	adc	r25, r25
    1020:	88 0f       	add	r24, r24
    1022:	99 1f       	adc	r25, r25
    1024:	88 0f       	add	r24, r24
    1026:	99 1f       	adc	r25, r25
    1028:	82 2b       	or	r24, r18
    102a:	8c 93       	st	X, r24
    102c:	53 c2       	rjmp	.+1190   	; 0x14d4 <DIO_enuSetPinVal+0x820>
				case DIO_PIN4:
					PORTB &= ~(1<<DIO_PIN4);
    102e:	a8 e3       	ldi	r26, 0x38	; 56
    1030:	b0 e0       	ldi	r27, 0x00	; 0
    1032:	e8 e3       	ldi	r30, 0x38	; 56
    1034:	f0 e0       	ldi	r31, 0x00	; 0
    1036:	80 81       	ld	r24, Z
    1038:	8f 7e       	andi	r24, 0xEF	; 239
    103a:	8c 93       	st	X, r24
					PORTB |=(Copy_u8Value<<DIO_PIN4);break;
    103c:	a8 e3       	ldi	r26, 0x38	; 56
    103e:	b0 e0       	ldi	r27, 0x00	; 0
    1040:	e8 e3       	ldi	r30, 0x38	; 56
    1042:	f0 e0       	ldi	r31, 0x00	; 0
    1044:	80 81       	ld	r24, Z
    1046:	28 2f       	mov	r18, r24
    1048:	8c 81       	ldd	r24, Y+4	; 0x04
    104a:	88 2f       	mov	r24, r24
    104c:	90 e0       	ldi	r25, 0x00	; 0
    104e:	82 95       	swap	r24
    1050:	92 95       	swap	r25
    1052:	90 7f       	andi	r25, 0xF0	; 240
    1054:	98 27       	eor	r25, r24
    1056:	80 7f       	andi	r24, 0xF0	; 240
    1058:	98 27       	eor	r25, r24
    105a:	82 2b       	or	r24, r18
    105c:	8c 93       	st	X, r24
    105e:	3a c2       	rjmp	.+1140   	; 0x14d4 <DIO_enuSetPinVal+0x820>
				case DIO_PIN5:
					PORTB &= ~(1<<DIO_PIN5);
    1060:	a8 e3       	ldi	r26, 0x38	; 56
    1062:	b0 e0       	ldi	r27, 0x00	; 0
    1064:	e8 e3       	ldi	r30, 0x38	; 56
    1066:	f0 e0       	ldi	r31, 0x00	; 0
    1068:	80 81       	ld	r24, Z
    106a:	8f 7d       	andi	r24, 0xDF	; 223
    106c:	8c 93       	st	X, r24
					PORTB |=(Copy_u8Value<<DIO_PIN5);break;
    106e:	a8 e3       	ldi	r26, 0x38	; 56
    1070:	b0 e0       	ldi	r27, 0x00	; 0
    1072:	e8 e3       	ldi	r30, 0x38	; 56
    1074:	f0 e0       	ldi	r31, 0x00	; 0
    1076:	80 81       	ld	r24, Z
    1078:	28 2f       	mov	r18, r24
    107a:	8c 81       	ldd	r24, Y+4	; 0x04
    107c:	88 2f       	mov	r24, r24
    107e:	90 e0       	ldi	r25, 0x00	; 0
    1080:	88 0f       	add	r24, r24
    1082:	99 1f       	adc	r25, r25
    1084:	82 95       	swap	r24
    1086:	92 95       	swap	r25
    1088:	90 7f       	andi	r25, 0xF0	; 240
    108a:	98 27       	eor	r25, r24
    108c:	80 7f       	andi	r24, 0xF0	; 240
    108e:	98 27       	eor	r25, r24
    1090:	82 2b       	or	r24, r18
    1092:	8c 93       	st	X, r24
    1094:	1f c2       	rjmp	.+1086   	; 0x14d4 <DIO_enuSetPinVal+0x820>
				case DIO_PIN6:
					PORTB &= ~(1<<DIO_PIN6);
    1096:	a8 e3       	ldi	r26, 0x38	; 56
    1098:	b0 e0       	ldi	r27, 0x00	; 0
    109a:	e8 e3       	ldi	r30, 0x38	; 56
    109c:	f0 e0       	ldi	r31, 0x00	; 0
    109e:	80 81       	ld	r24, Z
    10a0:	8f 7b       	andi	r24, 0xBF	; 191
    10a2:	8c 93       	st	X, r24
					PORTB |=(Copy_u8Value<<DIO_PIN6);break;
    10a4:	a8 e3       	ldi	r26, 0x38	; 56
    10a6:	b0 e0       	ldi	r27, 0x00	; 0
    10a8:	e8 e3       	ldi	r30, 0x38	; 56
    10aa:	f0 e0       	ldi	r31, 0x00	; 0
    10ac:	80 81       	ld	r24, Z
    10ae:	28 2f       	mov	r18, r24
    10b0:	8c 81       	ldd	r24, Y+4	; 0x04
    10b2:	88 2f       	mov	r24, r24
    10b4:	90 e0       	ldi	r25, 0x00	; 0
    10b6:	00 24       	eor	r0, r0
    10b8:	96 95       	lsr	r25
    10ba:	87 95       	ror	r24
    10bc:	07 94       	ror	r0
    10be:	96 95       	lsr	r25
    10c0:	87 95       	ror	r24
    10c2:	07 94       	ror	r0
    10c4:	98 2f       	mov	r25, r24
    10c6:	80 2d       	mov	r24, r0
    10c8:	82 2b       	or	r24, r18
    10ca:	8c 93       	st	X, r24
    10cc:	03 c2       	rjmp	.+1030   	; 0x14d4 <DIO_enuSetPinVal+0x820>
				case DIO_PIN7:
					PORTB &= ~(1<<DIO_PIN7);
    10ce:	a8 e3       	ldi	r26, 0x38	; 56
    10d0:	b0 e0       	ldi	r27, 0x00	; 0
    10d2:	e8 e3       	ldi	r30, 0x38	; 56
    10d4:	f0 e0       	ldi	r31, 0x00	; 0
    10d6:	80 81       	ld	r24, Z
    10d8:	8f 77       	andi	r24, 0x7F	; 127
    10da:	8c 93       	st	X, r24
					PORTB |=(Copy_u8Value<<DIO_PIN7);break;
    10dc:	a8 e3       	ldi	r26, 0x38	; 56
    10de:	b0 e0       	ldi	r27, 0x00	; 0
    10e0:	e8 e3       	ldi	r30, 0x38	; 56
    10e2:	f0 e0       	ldi	r31, 0x00	; 0
    10e4:	80 81       	ld	r24, Z
    10e6:	28 2f       	mov	r18, r24
    10e8:	8c 81       	ldd	r24, Y+4	; 0x04
    10ea:	88 2f       	mov	r24, r24
    10ec:	90 e0       	ldi	r25, 0x00	; 0
    10ee:	96 95       	lsr	r25
    10f0:	98 2f       	mov	r25, r24
    10f2:	88 27       	eor	r24, r24
    10f4:	97 95       	ror	r25
    10f6:	87 95       	ror	r24
    10f8:	82 2b       	or	r24, r18
    10fa:	8c 93       	st	X, r24
    10fc:	eb c1       	rjmp	.+982    	; 0x14d4 <DIO_enuSetPinVal+0x820>
				}
				break;
				case DIO_PORTC://SelectFromPortC
					switch(Copy_u8PinId)
    10fe:	8b 81       	ldd	r24, Y+3	; 0x03
    1100:	28 2f       	mov	r18, r24
    1102:	30 e0       	ldi	r19, 0x00	; 0
    1104:	38 87       	std	Y+8, r19	; 0x08
    1106:	2f 83       	std	Y+7, r18	; 0x07
    1108:	8f 81       	ldd	r24, Y+7	; 0x07
    110a:	98 85       	ldd	r25, Y+8	; 0x08
    110c:	83 30       	cpi	r24, 0x03	; 3
    110e:	91 05       	cpc	r25, r1
    1110:	09 f4       	brne	.+2      	; 0x1114 <DIO_enuSetPinVal+0x460>
    1112:	6a c0       	rjmp	.+212    	; 0x11e8 <DIO_enuSetPinVal+0x534>
    1114:	2f 81       	ldd	r18, Y+7	; 0x07
    1116:	38 85       	ldd	r19, Y+8	; 0x08
    1118:	24 30       	cpi	r18, 0x04	; 4
    111a:	31 05       	cpc	r19, r1
    111c:	84 f4       	brge	.+32     	; 0x113e <DIO_enuSetPinVal+0x48a>
    111e:	8f 81       	ldd	r24, Y+7	; 0x07
    1120:	98 85       	ldd	r25, Y+8	; 0x08
    1122:	81 30       	cpi	r24, 0x01	; 1
    1124:	91 05       	cpc	r25, r1
    1126:	a1 f1       	breq	.+104    	; 0x1190 <DIO_enuSetPinVal+0x4dc>
    1128:	2f 81       	ldd	r18, Y+7	; 0x07
    112a:	38 85       	ldd	r19, Y+8	; 0x08
    112c:	22 30       	cpi	r18, 0x02	; 2
    112e:	31 05       	cpc	r19, r1
    1130:	0c f0       	brlt	.+2      	; 0x1134 <DIO_enuSetPinVal+0x480>
    1132:	43 c0       	rjmp	.+134    	; 0x11ba <DIO_enuSetPinVal+0x506>
    1134:	8f 81       	ldd	r24, Y+7	; 0x07
    1136:	98 85       	ldd	r25, Y+8	; 0x08
    1138:	00 97       	sbiw	r24, 0x00	; 0
    113a:	d1 f0       	breq	.+52     	; 0x1170 <DIO_enuSetPinVal+0x4bc>
    113c:	cb c1       	rjmp	.+918    	; 0x14d4 <DIO_enuSetPinVal+0x820>
    113e:	2f 81       	ldd	r18, Y+7	; 0x07
    1140:	38 85       	ldd	r19, Y+8	; 0x08
    1142:	25 30       	cpi	r18, 0x05	; 5
    1144:	31 05       	cpc	r19, r1
    1146:	09 f4       	brne	.+2      	; 0x114a <DIO_enuSetPinVal+0x496>
    1148:	81 c0       	rjmp	.+258    	; 0x124c <DIO_enuSetPinVal+0x598>
    114a:	8f 81       	ldd	r24, Y+7	; 0x07
    114c:	98 85       	ldd	r25, Y+8	; 0x08
    114e:	85 30       	cpi	r24, 0x05	; 5
    1150:	91 05       	cpc	r25, r1
    1152:	0c f4       	brge	.+2      	; 0x1156 <DIO_enuSetPinVal+0x4a2>
    1154:	62 c0       	rjmp	.+196    	; 0x121a <DIO_enuSetPinVal+0x566>
    1156:	2f 81       	ldd	r18, Y+7	; 0x07
    1158:	38 85       	ldd	r19, Y+8	; 0x08
    115a:	26 30       	cpi	r18, 0x06	; 6
    115c:	31 05       	cpc	r19, r1
    115e:	09 f4       	brne	.+2      	; 0x1162 <DIO_enuSetPinVal+0x4ae>
    1160:	90 c0       	rjmp	.+288    	; 0x1282 <DIO_enuSetPinVal+0x5ce>
    1162:	8f 81       	ldd	r24, Y+7	; 0x07
    1164:	98 85       	ldd	r25, Y+8	; 0x08
    1166:	87 30       	cpi	r24, 0x07	; 7
    1168:	91 05       	cpc	r25, r1
    116a:	09 f4       	brne	.+2      	; 0x116e <DIO_enuSetPinVal+0x4ba>
    116c:	a6 c0       	rjmp	.+332    	; 0x12ba <DIO_enuSetPinVal+0x606>
    116e:	b2 c1       	rjmp	.+868    	; 0x14d4 <DIO_enuSetPinVal+0x820>
					{
					case DIO_PIN0:
						PORTC &= ~(1<<DIO_PIN0);
    1170:	a5 e3       	ldi	r26, 0x35	; 53
    1172:	b0 e0       	ldi	r27, 0x00	; 0
    1174:	e5 e3       	ldi	r30, 0x35	; 53
    1176:	f0 e0       	ldi	r31, 0x00	; 0
    1178:	80 81       	ld	r24, Z
    117a:	8e 7f       	andi	r24, 0xFE	; 254
    117c:	8c 93       	st	X, r24
						PORTC |=(Copy_u8Value<<DIO_PIN0);break;
    117e:	a5 e3       	ldi	r26, 0x35	; 53
    1180:	b0 e0       	ldi	r27, 0x00	; 0
    1182:	e5 e3       	ldi	r30, 0x35	; 53
    1184:	f0 e0       	ldi	r31, 0x00	; 0
    1186:	90 81       	ld	r25, Z
    1188:	8c 81       	ldd	r24, Y+4	; 0x04
    118a:	89 2b       	or	r24, r25
    118c:	8c 93       	st	X, r24
    118e:	a2 c1       	rjmp	.+836    	; 0x14d4 <DIO_enuSetPinVal+0x820>
					case DIO_PIN1:
						PORTC &= ~(1<<DIO_PIN1);
    1190:	a5 e3       	ldi	r26, 0x35	; 53
    1192:	b0 e0       	ldi	r27, 0x00	; 0
    1194:	e5 e3       	ldi	r30, 0x35	; 53
    1196:	f0 e0       	ldi	r31, 0x00	; 0
    1198:	80 81       	ld	r24, Z
    119a:	8d 7f       	andi	r24, 0xFD	; 253
    119c:	8c 93       	st	X, r24
						PORTC |=(Copy_u8Value<<DIO_PIN1);break;
    119e:	a5 e3       	ldi	r26, 0x35	; 53
    11a0:	b0 e0       	ldi	r27, 0x00	; 0
    11a2:	e5 e3       	ldi	r30, 0x35	; 53
    11a4:	f0 e0       	ldi	r31, 0x00	; 0
    11a6:	80 81       	ld	r24, Z
    11a8:	28 2f       	mov	r18, r24
    11aa:	8c 81       	ldd	r24, Y+4	; 0x04
    11ac:	88 2f       	mov	r24, r24
    11ae:	90 e0       	ldi	r25, 0x00	; 0
    11b0:	88 0f       	add	r24, r24
    11b2:	99 1f       	adc	r25, r25
    11b4:	82 2b       	or	r24, r18
    11b6:	8c 93       	st	X, r24
    11b8:	8d c1       	rjmp	.+794    	; 0x14d4 <DIO_enuSetPinVal+0x820>
					case DIO_PIN2:
						PORTC &= ~(1<<DIO_PIN2);
    11ba:	a5 e3       	ldi	r26, 0x35	; 53
    11bc:	b0 e0       	ldi	r27, 0x00	; 0
    11be:	e5 e3       	ldi	r30, 0x35	; 53
    11c0:	f0 e0       	ldi	r31, 0x00	; 0
    11c2:	80 81       	ld	r24, Z
    11c4:	8b 7f       	andi	r24, 0xFB	; 251
    11c6:	8c 93       	st	X, r24
						PORTC |=(Copy_u8Value<<DIO_PIN2);break;
    11c8:	a5 e3       	ldi	r26, 0x35	; 53
    11ca:	b0 e0       	ldi	r27, 0x00	; 0
    11cc:	e5 e3       	ldi	r30, 0x35	; 53
    11ce:	f0 e0       	ldi	r31, 0x00	; 0
    11d0:	80 81       	ld	r24, Z
    11d2:	28 2f       	mov	r18, r24
    11d4:	8c 81       	ldd	r24, Y+4	; 0x04
    11d6:	88 2f       	mov	r24, r24
    11d8:	90 e0       	ldi	r25, 0x00	; 0
    11da:	88 0f       	add	r24, r24
    11dc:	99 1f       	adc	r25, r25
    11de:	88 0f       	add	r24, r24
    11e0:	99 1f       	adc	r25, r25
    11e2:	82 2b       	or	r24, r18
    11e4:	8c 93       	st	X, r24
    11e6:	76 c1       	rjmp	.+748    	; 0x14d4 <DIO_enuSetPinVal+0x820>
					case DIO_PIN3:
						PORTC &= ~(1<<DIO_PIN3);
    11e8:	a5 e3       	ldi	r26, 0x35	; 53
    11ea:	b0 e0       	ldi	r27, 0x00	; 0
    11ec:	e5 e3       	ldi	r30, 0x35	; 53
    11ee:	f0 e0       	ldi	r31, 0x00	; 0
    11f0:	80 81       	ld	r24, Z
    11f2:	87 7f       	andi	r24, 0xF7	; 247
    11f4:	8c 93       	st	X, r24
						PORTC |=(Copy_u8Value<<DIO_PIN3);break;
    11f6:	a5 e3       	ldi	r26, 0x35	; 53
    11f8:	b0 e0       	ldi	r27, 0x00	; 0
    11fa:	e5 e3       	ldi	r30, 0x35	; 53
    11fc:	f0 e0       	ldi	r31, 0x00	; 0
    11fe:	80 81       	ld	r24, Z
    1200:	28 2f       	mov	r18, r24
    1202:	8c 81       	ldd	r24, Y+4	; 0x04
    1204:	88 2f       	mov	r24, r24
    1206:	90 e0       	ldi	r25, 0x00	; 0
    1208:	88 0f       	add	r24, r24
    120a:	99 1f       	adc	r25, r25
    120c:	88 0f       	add	r24, r24
    120e:	99 1f       	adc	r25, r25
    1210:	88 0f       	add	r24, r24
    1212:	99 1f       	adc	r25, r25
    1214:	82 2b       	or	r24, r18
    1216:	8c 93       	st	X, r24
    1218:	5d c1       	rjmp	.+698    	; 0x14d4 <DIO_enuSetPinVal+0x820>
					case DIO_PIN4:
						PORTC &= ~(1<<DIO_PIN4);
    121a:	a5 e3       	ldi	r26, 0x35	; 53
    121c:	b0 e0       	ldi	r27, 0x00	; 0
    121e:	e5 e3       	ldi	r30, 0x35	; 53
    1220:	f0 e0       	ldi	r31, 0x00	; 0
    1222:	80 81       	ld	r24, Z
    1224:	8f 7e       	andi	r24, 0xEF	; 239
    1226:	8c 93       	st	X, r24
						PORTC |=(Copy_u8Value<<DIO_PIN4);break;
    1228:	a5 e3       	ldi	r26, 0x35	; 53
    122a:	b0 e0       	ldi	r27, 0x00	; 0
    122c:	e5 e3       	ldi	r30, 0x35	; 53
    122e:	f0 e0       	ldi	r31, 0x00	; 0
    1230:	80 81       	ld	r24, Z
    1232:	28 2f       	mov	r18, r24
    1234:	8c 81       	ldd	r24, Y+4	; 0x04
    1236:	88 2f       	mov	r24, r24
    1238:	90 e0       	ldi	r25, 0x00	; 0
    123a:	82 95       	swap	r24
    123c:	92 95       	swap	r25
    123e:	90 7f       	andi	r25, 0xF0	; 240
    1240:	98 27       	eor	r25, r24
    1242:	80 7f       	andi	r24, 0xF0	; 240
    1244:	98 27       	eor	r25, r24
    1246:	82 2b       	or	r24, r18
    1248:	8c 93       	st	X, r24
    124a:	44 c1       	rjmp	.+648    	; 0x14d4 <DIO_enuSetPinVal+0x820>
					case DIO_PIN5:
						PORTC &= ~(1<<DIO_PIN5);
    124c:	a5 e3       	ldi	r26, 0x35	; 53
    124e:	b0 e0       	ldi	r27, 0x00	; 0
    1250:	e5 e3       	ldi	r30, 0x35	; 53
    1252:	f0 e0       	ldi	r31, 0x00	; 0
    1254:	80 81       	ld	r24, Z
    1256:	8f 7d       	andi	r24, 0xDF	; 223
    1258:	8c 93       	st	X, r24
						PORTC |=(Copy_u8Value<<DIO_PIN5);break;
    125a:	a5 e3       	ldi	r26, 0x35	; 53
    125c:	b0 e0       	ldi	r27, 0x00	; 0
    125e:	e5 e3       	ldi	r30, 0x35	; 53
    1260:	f0 e0       	ldi	r31, 0x00	; 0
    1262:	80 81       	ld	r24, Z
    1264:	28 2f       	mov	r18, r24
    1266:	8c 81       	ldd	r24, Y+4	; 0x04
    1268:	88 2f       	mov	r24, r24
    126a:	90 e0       	ldi	r25, 0x00	; 0
    126c:	88 0f       	add	r24, r24
    126e:	99 1f       	adc	r25, r25
    1270:	82 95       	swap	r24
    1272:	92 95       	swap	r25
    1274:	90 7f       	andi	r25, 0xF0	; 240
    1276:	98 27       	eor	r25, r24
    1278:	80 7f       	andi	r24, 0xF0	; 240
    127a:	98 27       	eor	r25, r24
    127c:	82 2b       	or	r24, r18
    127e:	8c 93       	st	X, r24
    1280:	29 c1       	rjmp	.+594    	; 0x14d4 <DIO_enuSetPinVal+0x820>
					case DIO_PIN6:
						PORTC &= ~(1<<DIO_PIN6);
    1282:	a5 e3       	ldi	r26, 0x35	; 53
    1284:	b0 e0       	ldi	r27, 0x00	; 0
    1286:	e5 e3       	ldi	r30, 0x35	; 53
    1288:	f0 e0       	ldi	r31, 0x00	; 0
    128a:	80 81       	ld	r24, Z
    128c:	8f 7b       	andi	r24, 0xBF	; 191
    128e:	8c 93       	st	X, r24
						PORTC |=(Copy_u8Value<<DIO_PIN6);break;
    1290:	a5 e3       	ldi	r26, 0x35	; 53
    1292:	b0 e0       	ldi	r27, 0x00	; 0
    1294:	e5 e3       	ldi	r30, 0x35	; 53
    1296:	f0 e0       	ldi	r31, 0x00	; 0
    1298:	80 81       	ld	r24, Z
    129a:	28 2f       	mov	r18, r24
    129c:	8c 81       	ldd	r24, Y+4	; 0x04
    129e:	88 2f       	mov	r24, r24
    12a0:	90 e0       	ldi	r25, 0x00	; 0
    12a2:	00 24       	eor	r0, r0
    12a4:	96 95       	lsr	r25
    12a6:	87 95       	ror	r24
    12a8:	07 94       	ror	r0
    12aa:	96 95       	lsr	r25
    12ac:	87 95       	ror	r24
    12ae:	07 94       	ror	r0
    12b0:	98 2f       	mov	r25, r24
    12b2:	80 2d       	mov	r24, r0
    12b4:	82 2b       	or	r24, r18
    12b6:	8c 93       	st	X, r24
    12b8:	0d c1       	rjmp	.+538    	; 0x14d4 <DIO_enuSetPinVal+0x820>
					case DIO_PIN7:
						PORTC &= ~(1<<DIO_PIN7);
    12ba:	a5 e3       	ldi	r26, 0x35	; 53
    12bc:	b0 e0       	ldi	r27, 0x00	; 0
    12be:	e5 e3       	ldi	r30, 0x35	; 53
    12c0:	f0 e0       	ldi	r31, 0x00	; 0
    12c2:	80 81       	ld	r24, Z
    12c4:	8f 77       	andi	r24, 0x7F	; 127
    12c6:	8c 93       	st	X, r24
						PORTC |=(Copy_u8Value<<DIO_PIN7);break;
    12c8:	a5 e3       	ldi	r26, 0x35	; 53
    12ca:	b0 e0       	ldi	r27, 0x00	; 0
    12cc:	e5 e3       	ldi	r30, 0x35	; 53
    12ce:	f0 e0       	ldi	r31, 0x00	; 0
    12d0:	80 81       	ld	r24, Z
    12d2:	28 2f       	mov	r18, r24
    12d4:	8c 81       	ldd	r24, Y+4	; 0x04
    12d6:	88 2f       	mov	r24, r24
    12d8:	90 e0       	ldi	r25, 0x00	; 0
    12da:	96 95       	lsr	r25
    12dc:	98 2f       	mov	r25, r24
    12de:	88 27       	eor	r24, r24
    12e0:	97 95       	ror	r25
    12e2:	87 95       	ror	r24
    12e4:	82 2b       	or	r24, r18
    12e6:	8c 93       	st	X, r24
    12e8:	f5 c0       	rjmp	.+490    	; 0x14d4 <DIO_enuSetPinVal+0x820>
					}
					break;
					case DIO_PORTD://SelectFromPortD
						switch(Copy_u8PinId)
    12ea:	8b 81       	ldd	r24, Y+3	; 0x03
    12ec:	28 2f       	mov	r18, r24
    12ee:	30 e0       	ldi	r19, 0x00	; 0
    12f0:	3e 83       	std	Y+6, r19	; 0x06
    12f2:	2d 83       	std	Y+5, r18	; 0x05
    12f4:	8d 81       	ldd	r24, Y+5	; 0x05
    12f6:	9e 81       	ldd	r25, Y+6	; 0x06
    12f8:	83 30       	cpi	r24, 0x03	; 3
    12fa:	91 05       	cpc	r25, r1
    12fc:	09 f4       	brne	.+2      	; 0x1300 <DIO_enuSetPinVal+0x64c>
    12fe:	6a c0       	rjmp	.+212    	; 0x13d4 <DIO_enuSetPinVal+0x720>
    1300:	2d 81       	ldd	r18, Y+5	; 0x05
    1302:	3e 81       	ldd	r19, Y+6	; 0x06
    1304:	24 30       	cpi	r18, 0x04	; 4
    1306:	31 05       	cpc	r19, r1
    1308:	84 f4       	brge	.+32     	; 0x132a <DIO_enuSetPinVal+0x676>
    130a:	8d 81       	ldd	r24, Y+5	; 0x05
    130c:	9e 81       	ldd	r25, Y+6	; 0x06
    130e:	81 30       	cpi	r24, 0x01	; 1
    1310:	91 05       	cpc	r25, r1
    1312:	a1 f1       	breq	.+104    	; 0x137c <DIO_enuSetPinVal+0x6c8>
    1314:	2d 81       	ldd	r18, Y+5	; 0x05
    1316:	3e 81       	ldd	r19, Y+6	; 0x06
    1318:	22 30       	cpi	r18, 0x02	; 2
    131a:	31 05       	cpc	r19, r1
    131c:	0c f0       	brlt	.+2      	; 0x1320 <DIO_enuSetPinVal+0x66c>
    131e:	43 c0       	rjmp	.+134    	; 0x13a6 <DIO_enuSetPinVal+0x6f2>
    1320:	8d 81       	ldd	r24, Y+5	; 0x05
    1322:	9e 81       	ldd	r25, Y+6	; 0x06
    1324:	00 97       	sbiw	r24, 0x00	; 0
    1326:	d1 f0       	breq	.+52     	; 0x135c <DIO_enuSetPinVal+0x6a8>
    1328:	d5 c0       	rjmp	.+426    	; 0x14d4 <DIO_enuSetPinVal+0x820>
    132a:	2d 81       	ldd	r18, Y+5	; 0x05
    132c:	3e 81       	ldd	r19, Y+6	; 0x06
    132e:	25 30       	cpi	r18, 0x05	; 5
    1330:	31 05       	cpc	r19, r1
    1332:	09 f4       	brne	.+2      	; 0x1336 <DIO_enuSetPinVal+0x682>
    1334:	81 c0       	rjmp	.+258    	; 0x1438 <DIO_enuSetPinVal+0x784>
    1336:	8d 81       	ldd	r24, Y+5	; 0x05
    1338:	9e 81       	ldd	r25, Y+6	; 0x06
    133a:	85 30       	cpi	r24, 0x05	; 5
    133c:	91 05       	cpc	r25, r1
    133e:	0c f4       	brge	.+2      	; 0x1342 <DIO_enuSetPinVal+0x68e>
    1340:	62 c0       	rjmp	.+196    	; 0x1406 <DIO_enuSetPinVal+0x752>
    1342:	2d 81       	ldd	r18, Y+5	; 0x05
    1344:	3e 81       	ldd	r19, Y+6	; 0x06
    1346:	26 30       	cpi	r18, 0x06	; 6
    1348:	31 05       	cpc	r19, r1
    134a:	09 f4       	brne	.+2      	; 0x134e <DIO_enuSetPinVal+0x69a>
    134c:	90 c0       	rjmp	.+288    	; 0x146e <DIO_enuSetPinVal+0x7ba>
    134e:	8d 81       	ldd	r24, Y+5	; 0x05
    1350:	9e 81       	ldd	r25, Y+6	; 0x06
    1352:	87 30       	cpi	r24, 0x07	; 7
    1354:	91 05       	cpc	r25, r1
    1356:	09 f4       	brne	.+2      	; 0x135a <DIO_enuSetPinVal+0x6a6>
    1358:	a6 c0       	rjmp	.+332    	; 0x14a6 <DIO_enuSetPinVal+0x7f2>
    135a:	bc c0       	rjmp	.+376    	; 0x14d4 <DIO_enuSetPinVal+0x820>
						{
						case DIO_PIN0:
							PORTD &= ~(1<<DIO_PIN0);
    135c:	a2 e3       	ldi	r26, 0x32	; 50
    135e:	b0 e0       	ldi	r27, 0x00	; 0
    1360:	e2 e3       	ldi	r30, 0x32	; 50
    1362:	f0 e0       	ldi	r31, 0x00	; 0
    1364:	80 81       	ld	r24, Z
    1366:	8e 7f       	andi	r24, 0xFE	; 254
    1368:	8c 93       	st	X, r24
							PORTD |=(Copy_u8Value<<DIO_PIN0);break;
    136a:	a2 e3       	ldi	r26, 0x32	; 50
    136c:	b0 e0       	ldi	r27, 0x00	; 0
    136e:	e2 e3       	ldi	r30, 0x32	; 50
    1370:	f0 e0       	ldi	r31, 0x00	; 0
    1372:	90 81       	ld	r25, Z
    1374:	8c 81       	ldd	r24, Y+4	; 0x04
    1376:	89 2b       	or	r24, r25
    1378:	8c 93       	st	X, r24
    137a:	ac c0       	rjmp	.+344    	; 0x14d4 <DIO_enuSetPinVal+0x820>
						case DIO_PIN1:
							PORTD &= ~(1<<DIO_PIN1);
    137c:	a2 e3       	ldi	r26, 0x32	; 50
    137e:	b0 e0       	ldi	r27, 0x00	; 0
    1380:	e2 e3       	ldi	r30, 0x32	; 50
    1382:	f0 e0       	ldi	r31, 0x00	; 0
    1384:	80 81       	ld	r24, Z
    1386:	8d 7f       	andi	r24, 0xFD	; 253
    1388:	8c 93       	st	X, r24
							PORTD |=(Copy_u8Value<<DIO_PIN1);break;
    138a:	a2 e3       	ldi	r26, 0x32	; 50
    138c:	b0 e0       	ldi	r27, 0x00	; 0
    138e:	e2 e3       	ldi	r30, 0x32	; 50
    1390:	f0 e0       	ldi	r31, 0x00	; 0
    1392:	80 81       	ld	r24, Z
    1394:	28 2f       	mov	r18, r24
    1396:	8c 81       	ldd	r24, Y+4	; 0x04
    1398:	88 2f       	mov	r24, r24
    139a:	90 e0       	ldi	r25, 0x00	; 0
    139c:	88 0f       	add	r24, r24
    139e:	99 1f       	adc	r25, r25
    13a0:	82 2b       	or	r24, r18
    13a2:	8c 93       	st	X, r24
    13a4:	97 c0       	rjmp	.+302    	; 0x14d4 <DIO_enuSetPinVal+0x820>
						case DIO_PIN2:
							PORTD &= ~(1<<DIO_PIN2);
    13a6:	a2 e3       	ldi	r26, 0x32	; 50
    13a8:	b0 e0       	ldi	r27, 0x00	; 0
    13aa:	e2 e3       	ldi	r30, 0x32	; 50
    13ac:	f0 e0       	ldi	r31, 0x00	; 0
    13ae:	80 81       	ld	r24, Z
    13b0:	8b 7f       	andi	r24, 0xFB	; 251
    13b2:	8c 93       	st	X, r24
							PORTD |=(Copy_u8Value<<DIO_PIN2);break;
    13b4:	a2 e3       	ldi	r26, 0x32	; 50
    13b6:	b0 e0       	ldi	r27, 0x00	; 0
    13b8:	e2 e3       	ldi	r30, 0x32	; 50
    13ba:	f0 e0       	ldi	r31, 0x00	; 0
    13bc:	80 81       	ld	r24, Z
    13be:	28 2f       	mov	r18, r24
    13c0:	8c 81       	ldd	r24, Y+4	; 0x04
    13c2:	88 2f       	mov	r24, r24
    13c4:	90 e0       	ldi	r25, 0x00	; 0
    13c6:	88 0f       	add	r24, r24
    13c8:	99 1f       	adc	r25, r25
    13ca:	88 0f       	add	r24, r24
    13cc:	99 1f       	adc	r25, r25
    13ce:	82 2b       	or	r24, r18
    13d0:	8c 93       	st	X, r24
    13d2:	80 c0       	rjmp	.+256    	; 0x14d4 <DIO_enuSetPinVal+0x820>
						case DIO_PIN3:
							PORTD &= ~(1<<DIO_PIN3);
    13d4:	a2 e3       	ldi	r26, 0x32	; 50
    13d6:	b0 e0       	ldi	r27, 0x00	; 0
    13d8:	e2 e3       	ldi	r30, 0x32	; 50
    13da:	f0 e0       	ldi	r31, 0x00	; 0
    13dc:	80 81       	ld	r24, Z
    13de:	87 7f       	andi	r24, 0xF7	; 247
    13e0:	8c 93       	st	X, r24
							PORTD |=(Copy_u8Value<<DIO_PIN3);break;
    13e2:	a2 e3       	ldi	r26, 0x32	; 50
    13e4:	b0 e0       	ldi	r27, 0x00	; 0
    13e6:	e2 e3       	ldi	r30, 0x32	; 50
    13e8:	f0 e0       	ldi	r31, 0x00	; 0
    13ea:	80 81       	ld	r24, Z
    13ec:	28 2f       	mov	r18, r24
    13ee:	8c 81       	ldd	r24, Y+4	; 0x04
    13f0:	88 2f       	mov	r24, r24
    13f2:	90 e0       	ldi	r25, 0x00	; 0
    13f4:	88 0f       	add	r24, r24
    13f6:	99 1f       	adc	r25, r25
    13f8:	88 0f       	add	r24, r24
    13fa:	99 1f       	adc	r25, r25
    13fc:	88 0f       	add	r24, r24
    13fe:	99 1f       	adc	r25, r25
    1400:	82 2b       	or	r24, r18
    1402:	8c 93       	st	X, r24
    1404:	67 c0       	rjmp	.+206    	; 0x14d4 <DIO_enuSetPinVal+0x820>
						case DIO_PIN4:
							PORTD &= ~(1<<DIO_PIN4);
    1406:	a2 e3       	ldi	r26, 0x32	; 50
    1408:	b0 e0       	ldi	r27, 0x00	; 0
    140a:	e2 e3       	ldi	r30, 0x32	; 50
    140c:	f0 e0       	ldi	r31, 0x00	; 0
    140e:	80 81       	ld	r24, Z
    1410:	8f 7e       	andi	r24, 0xEF	; 239
    1412:	8c 93       	st	X, r24
							PORTD |=(Copy_u8Value<<DIO_PIN4);break;
    1414:	a2 e3       	ldi	r26, 0x32	; 50
    1416:	b0 e0       	ldi	r27, 0x00	; 0
    1418:	e2 e3       	ldi	r30, 0x32	; 50
    141a:	f0 e0       	ldi	r31, 0x00	; 0
    141c:	80 81       	ld	r24, Z
    141e:	28 2f       	mov	r18, r24
    1420:	8c 81       	ldd	r24, Y+4	; 0x04
    1422:	88 2f       	mov	r24, r24
    1424:	90 e0       	ldi	r25, 0x00	; 0
    1426:	82 95       	swap	r24
    1428:	92 95       	swap	r25
    142a:	90 7f       	andi	r25, 0xF0	; 240
    142c:	98 27       	eor	r25, r24
    142e:	80 7f       	andi	r24, 0xF0	; 240
    1430:	98 27       	eor	r25, r24
    1432:	82 2b       	or	r24, r18
    1434:	8c 93       	st	X, r24
    1436:	4e c0       	rjmp	.+156    	; 0x14d4 <DIO_enuSetPinVal+0x820>
						case DIO_PIN5:
							PORTD &= ~(1<<DIO_PIN5);
    1438:	a2 e3       	ldi	r26, 0x32	; 50
    143a:	b0 e0       	ldi	r27, 0x00	; 0
    143c:	e2 e3       	ldi	r30, 0x32	; 50
    143e:	f0 e0       	ldi	r31, 0x00	; 0
    1440:	80 81       	ld	r24, Z
    1442:	8f 7d       	andi	r24, 0xDF	; 223
    1444:	8c 93       	st	X, r24
							PORTD |=(Copy_u8Value<<DIO_PIN5);break;
    1446:	a2 e3       	ldi	r26, 0x32	; 50
    1448:	b0 e0       	ldi	r27, 0x00	; 0
    144a:	e2 e3       	ldi	r30, 0x32	; 50
    144c:	f0 e0       	ldi	r31, 0x00	; 0
    144e:	80 81       	ld	r24, Z
    1450:	28 2f       	mov	r18, r24
    1452:	8c 81       	ldd	r24, Y+4	; 0x04
    1454:	88 2f       	mov	r24, r24
    1456:	90 e0       	ldi	r25, 0x00	; 0
    1458:	88 0f       	add	r24, r24
    145a:	99 1f       	adc	r25, r25
    145c:	82 95       	swap	r24
    145e:	92 95       	swap	r25
    1460:	90 7f       	andi	r25, 0xF0	; 240
    1462:	98 27       	eor	r25, r24
    1464:	80 7f       	andi	r24, 0xF0	; 240
    1466:	98 27       	eor	r25, r24
    1468:	82 2b       	or	r24, r18
    146a:	8c 93       	st	X, r24
    146c:	33 c0       	rjmp	.+102    	; 0x14d4 <DIO_enuSetPinVal+0x820>
						case DIO_PIN6:
							PORTD &= ~(1<<DIO_PIN6);
    146e:	a2 e3       	ldi	r26, 0x32	; 50
    1470:	b0 e0       	ldi	r27, 0x00	; 0
    1472:	e2 e3       	ldi	r30, 0x32	; 50
    1474:	f0 e0       	ldi	r31, 0x00	; 0
    1476:	80 81       	ld	r24, Z
    1478:	8f 7b       	andi	r24, 0xBF	; 191
    147a:	8c 93       	st	X, r24
							PORTD |=(Copy_u8Value<<DIO_PIN6);break;
    147c:	a2 e3       	ldi	r26, 0x32	; 50
    147e:	b0 e0       	ldi	r27, 0x00	; 0
    1480:	e2 e3       	ldi	r30, 0x32	; 50
    1482:	f0 e0       	ldi	r31, 0x00	; 0
    1484:	80 81       	ld	r24, Z
    1486:	28 2f       	mov	r18, r24
    1488:	8c 81       	ldd	r24, Y+4	; 0x04
    148a:	88 2f       	mov	r24, r24
    148c:	90 e0       	ldi	r25, 0x00	; 0
    148e:	00 24       	eor	r0, r0
    1490:	96 95       	lsr	r25
    1492:	87 95       	ror	r24
    1494:	07 94       	ror	r0
    1496:	96 95       	lsr	r25
    1498:	87 95       	ror	r24
    149a:	07 94       	ror	r0
    149c:	98 2f       	mov	r25, r24
    149e:	80 2d       	mov	r24, r0
    14a0:	82 2b       	or	r24, r18
    14a2:	8c 93       	st	X, r24
    14a4:	17 c0       	rjmp	.+46     	; 0x14d4 <DIO_enuSetPinVal+0x820>
						case DIO_PIN7:
							PORTD &= ~(1<<DIO_PIN7);
    14a6:	a2 e3       	ldi	r26, 0x32	; 50
    14a8:	b0 e0       	ldi	r27, 0x00	; 0
    14aa:	e2 e3       	ldi	r30, 0x32	; 50
    14ac:	f0 e0       	ldi	r31, 0x00	; 0
    14ae:	80 81       	ld	r24, Z
    14b0:	8f 77       	andi	r24, 0x7F	; 127
    14b2:	8c 93       	st	X, r24
							PORTD |=(Copy_u8Value<<DIO_PIN7);break;
    14b4:	a2 e3       	ldi	r26, 0x32	; 50
    14b6:	b0 e0       	ldi	r27, 0x00	; 0
    14b8:	e2 e3       	ldi	r30, 0x32	; 50
    14ba:	f0 e0       	ldi	r31, 0x00	; 0
    14bc:	80 81       	ld	r24, Z
    14be:	28 2f       	mov	r18, r24
    14c0:	8c 81       	ldd	r24, Y+4	; 0x04
    14c2:	88 2f       	mov	r24, r24
    14c4:	90 e0       	ldi	r25, 0x00	; 0
    14c6:	96 95       	lsr	r25
    14c8:	98 2f       	mov	r25, r24
    14ca:	88 27       	eor	r24, r24
    14cc:	97 95       	ror	r25
    14ce:	87 95       	ror	r24
    14d0:	82 2b       	or	r24, r18
    14d2:	8c 93       	st	X, r24

						}
						break;

		}
		Local_enuErrorState = ES_OK;
    14d4:	19 82       	std	Y+1, r1	; 0x01
    14d6:	02 c0       	rjmp	.+4      	; 0x14dc <DIO_enuSetPinVal+0x828>
	}
	else
	{
		Local_enuErrorState = ES_Out_Of_Range;
    14d8:	83 e0       	ldi	r24, 0x03	; 3
    14da:	89 83       	std	Y+1, r24	; 0x01
	}


	return Local_enuErrorState;
    14dc:	89 81       	ldd	r24, Y+1	; 0x01
}
    14de:	2e 96       	adiw	r28, 0x0e	; 14
    14e0:	0f b6       	in	r0, 0x3f	; 63
    14e2:	f8 94       	cli
    14e4:	de bf       	out	0x3e, r29	; 62
    14e6:	0f be       	out	0x3f, r0	; 63
    14e8:	cd bf       	out	0x3d, r28	; 61
    14ea:	cf 91       	pop	r28
    14ec:	df 91       	pop	r29
    14ee:	08 95       	ret

000014f0 <DIO_enuToggelPin>:
ES_t DIO_enuToggelPin(u8 Copy_u8PortId,u8 Copy_u8PinId)
{
    14f0:	df 93       	push	r29
    14f2:	cf 93       	push	r28
    14f4:	cd b7       	in	r28, 0x3d	; 61
    14f6:	de b7       	in	r29, 0x3e	; 62
    14f8:	2d 97       	sbiw	r28, 0x0d	; 13
    14fa:	0f b6       	in	r0, 0x3f	; 63
    14fc:	f8 94       	cli
    14fe:	de bf       	out	0x3e, r29	; 62
    1500:	0f be       	out	0x3f, r0	; 63
    1502:	cd bf       	out	0x3d, r28	; 61
    1504:	8a 83       	std	Y+2, r24	; 0x02
    1506:	6b 83       	std	Y+3, r22	; 0x03
	ES_t Local_enuErrorState = ES_NOK;
    1508:	81 e0       	ldi	r24, 0x01	; 1
    150a:	89 83       	std	Y+1, r24	; 0x01
	if(Copy_u8PortId <= DIO_PORTD && Copy_u8PinId<= DIO_PIN7)
    150c:	8a 81       	ldd	r24, Y+2	; 0x02
    150e:	84 30       	cpi	r24, 0x04	; 4
    1510:	08 f0       	brcs	.+2      	; 0x1514 <DIO_enuToggelPin+0x24>
    1512:	1f c2       	rjmp	.+1086   	; 0x1952 <DIO_enuToggelPin+0x462>
    1514:	8b 81       	ldd	r24, Y+3	; 0x03
    1516:	88 30       	cpi	r24, 0x08	; 8
    1518:	08 f0       	brcs	.+2      	; 0x151c <DIO_enuToggelPin+0x2c>
    151a:	1b c2       	rjmp	.+1078   	; 0x1952 <DIO_enuToggelPin+0x462>
	{
		switch(Copy_u8PortId)
    151c:	8a 81       	ldd	r24, Y+2	; 0x02
    151e:	28 2f       	mov	r18, r24
    1520:	30 e0       	ldi	r19, 0x00	; 0
    1522:	3d 87       	std	Y+13, r19	; 0x0d
    1524:	2c 87       	std	Y+12, r18	; 0x0c
    1526:	8c 85       	ldd	r24, Y+12	; 0x0c
    1528:	9d 85       	ldd	r25, Y+13	; 0x0d
    152a:	81 30       	cpi	r24, 0x01	; 1
    152c:	91 05       	cpc	r25, r1
    152e:	09 f4       	brne	.+2      	; 0x1532 <DIO_enuToggelPin+0x42>
    1530:	95 c0       	rjmp	.+298    	; 0x165c <DIO_enuToggelPin+0x16c>
    1532:	2c 85       	ldd	r18, Y+12	; 0x0c
    1534:	3d 85       	ldd	r19, Y+13	; 0x0d
    1536:	22 30       	cpi	r18, 0x02	; 2
    1538:	31 05       	cpc	r19, r1
    153a:	2c f4       	brge	.+10     	; 0x1546 <DIO_enuToggelPin+0x56>
    153c:	8c 85       	ldd	r24, Y+12	; 0x0c
    153e:	9d 85       	ldd	r25, Y+13	; 0x0d
    1540:	00 97       	sbiw	r24, 0x00	; 0
    1542:	71 f0       	breq	.+28     	; 0x1560 <DIO_enuToggelPin+0x70>
    1544:	04 c2       	rjmp	.+1032   	; 0x194e <DIO_enuToggelPin+0x45e>
    1546:	2c 85       	ldd	r18, Y+12	; 0x0c
    1548:	3d 85       	ldd	r19, Y+13	; 0x0d
    154a:	22 30       	cpi	r18, 0x02	; 2
    154c:	31 05       	cpc	r19, r1
    154e:	09 f4       	brne	.+2      	; 0x1552 <DIO_enuToggelPin+0x62>
    1550:	03 c1       	rjmp	.+518    	; 0x1758 <DIO_enuToggelPin+0x268>
    1552:	8c 85       	ldd	r24, Y+12	; 0x0c
    1554:	9d 85       	ldd	r25, Y+13	; 0x0d
    1556:	83 30       	cpi	r24, 0x03	; 3
    1558:	91 05       	cpc	r25, r1
    155a:	09 f4       	brne	.+2      	; 0x155e <DIO_enuToggelPin+0x6e>
    155c:	7b c1       	rjmp	.+758    	; 0x1854 <DIO_enuToggelPin+0x364>
    155e:	f7 c1       	rjmp	.+1006   	; 0x194e <DIO_enuToggelPin+0x45e>
		{
		case DIO_PORTA://SelectFromPortA
			switch(Copy_u8PinId)
    1560:	8b 81       	ldd	r24, Y+3	; 0x03
    1562:	28 2f       	mov	r18, r24
    1564:	30 e0       	ldi	r19, 0x00	; 0
    1566:	3b 87       	std	Y+11, r19	; 0x0b
    1568:	2a 87       	std	Y+10, r18	; 0x0a
    156a:	8a 85       	ldd	r24, Y+10	; 0x0a
    156c:	9b 85       	ldd	r25, Y+11	; 0x0b
    156e:	83 30       	cpi	r24, 0x03	; 3
    1570:	91 05       	cpc	r25, r1
    1572:	09 f4       	brne	.+2      	; 0x1576 <DIO_enuToggelPin+0x86>
    1574:	46 c0       	rjmp	.+140    	; 0x1602 <DIO_enuToggelPin+0x112>
    1576:	2a 85       	ldd	r18, Y+10	; 0x0a
    1578:	3b 85       	ldd	r19, Y+11	; 0x0b
    157a:	24 30       	cpi	r18, 0x04	; 4
    157c:	31 05       	cpc	r19, r1
    157e:	7c f4       	brge	.+30     	; 0x159e <DIO_enuToggelPin+0xae>
    1580:	8a 85       	ldd	r24, Y+10	; 0x0a
    1582:	9b 85       	ldd	r25, Y+11	; 0x0b
    1584:	81 30       	cpi	r24, 0x01	; 1
    1586:	91 05       	cpc	r25, r1
    1588:	51 f1       	breq	.+84     	; 0x15de <DIO_enuToggelPin+0xee>
    158a:	2a 85       	ldd	r18, Y+10	; 0x0a
    158c:	3b 85       	ldd	r19, Y+11	; 0x0b
    158e:	22 30       	cpi	r18, 0x02	; 2
    1590:	31 05       	cpc	r19, r1
    1592:	74 f5       	brge	.+92     	; 0x15f0 <DIO_enuToggelPin+0x100>
    1594:	8a 85       	ldd	r24, Y+10	; 0x0a
    1596:	9b 85       	ldd	r25, Y+11	; 0x0b
    1598:	00 97       	sbiw	r24, 0x00	; 0
    159a:	c1 f0       	breq	.+48     	; 0x15cc <DIO_enuToggelPin+0xdc>
    159c:	d8 c1       	rjmp	.+944    	; 0x194e <DIO_enuToggelPin+0x45e>
    159e:	2a 85       	ldd	r18, Y+10	; 0x0a
    15a0:	3b 85       	ldd	r19, Y+11	; 0x0b
    15a2:	25 30       	cpi	r18, 0x05	; 5
    15a4:	31 05       	cpc	r19, r1
    15a6:	09 f4       	brne	.+2      	; 0x15aa <DIO_enuToggelPin+0xba>
    15a8:	3e c0       	rjmp	.+124    	; 0x1626 <DIO_enuToggelPin+0x136>
    15aa:	8a 85       	ldd	r24, Y+10	; 0x0a
    15ac:	9b 85       	ldd	r25, Y+11	; 0x0b
    15ae:	85 30       	cpi	r24, 0x05	; 5
    15b0:	91 05       	cpc	r25, r1
    15b2:	84 f1       	brlt	.+96     	; 0x1614 <DIO_enuToggelPin+0x124>
    15b4:	2a 85       	ldd	r18, Y+10	; 0x0a
    15b6:	3b 85       	ldd	r19, Y+11	; 0x0b
    15b8:	26 30       	cpi	r18, 0x06	; 6
    15ba:	31 05       	cpc	r19, r1
    15bc:	e9 f1       	breq	.+122    	; 0x1638 <DIO_enuToggelPin+0x148>
    15be:	8a 85       	ldd	r24, Y+10	; 0x0a
    15c0:	9b 85       	ldd	r25, Y+11	; 0x0b
    15c2:	87 30       	cpi	r24, 0x07	; 7
    15c4:	91 05       	cpc	r25, r1
    15c6:	09 f4       	brne	.+2      	; 0x15ca <DIO_enuToggelPin+0xda>
    15c8:	40 c0       	rjmp	.+128    	; 0x164a <DIO_enuToggelPin+0x15a>
    15ca:	c1 c1       	rjmp	.+898    	; 0x194e <DIO_enuToggelPin+0x45e>
			{
			case DIO_PIN0:

				PORTA ^=(1<<DIO_PIN0);break;
    15cc:	ab e3       	ldi	r26, 0x3B	; 59
    15ce:	b0 e0       	ldi	r27, 0x00	; 0
    15d0:	eb e3       	ldi	r30, 0x3B	; 59
    15d2:	f0 e0       	ldi	r31, 0x00	; 0
    15d4:	90 81       	ld	r25, Z
    15d6:	81 e0       	ldi	r24, 0x01	; 1
    15d8:	89 27       	eor	r24, r25
    15da:	8c 93       	st	X, r24
    15dc:	b8 c1       	rjmp	.+880    	; 0x194e <DIO_enuToggelPin+0x45e>
			case DIO_PIN1:

				PORTA ^=(1<<DIO_PIN1);break;
    15de:	ab e3       	ldi	r26, 0x3B	; 59
    15e0:	b0 e0       	ldi	r27, 0x00	; 0
    15e2:	eb e3       	ldi	r30, 0x3B	; 59
    15e4:	f0 e0       	ldi	r31, 0x00	; 0
    15e6:	90 81       	ld	r25, Z
    15e8:	82 e0       	ldi	r24, 0x02	; 2
    15ea:	89 27       	eor	r24, r25
    15ec:	8c 93       	st	X, r24
    15ee:	af c1       	rjmp	.+862    	; 0x194e <DIO_enuToggelPin+0x45e>
			case DIO_PIN2:

				PORTA ^=(1<<DIO_PIN2);break;
    15f0:	ab e3       	ldi	r26, 0x3B	; 59
    15f2:	b0 e0       	ldi	r27, 0x00	; 0
    15f4:	eb e3       	ldi	r30, 0x3B	; 59
    15f6:	f0 e0       	ldi	r31, 0x00	; 0
    15f8:	90 81       	ld	r25, Z
    15fa:	84 e0       	ldi	r24, 0x04	; 4
    15fc:	89 27       	eor	r24, r25
    15fe:	8c 93       	st	X, r24
    1600:	a6 c1       	rjmp	.+844    	; 0x194e <DIO_enuToggelPin+0x45e>
			case DIO_PIN3:

				PORTA ^=(1<<DIO_PIN3);break;
    1602:	ab e3       	ldi	r26, 0x3B	; 59
    1604:	b0 e0       	ldi	r27, 0x00	; 0
    1606:	eb e3       	ldi	r30, 0x3B	; 59
    1608:	f0 e0       	ldi	r31, 0x00	; 0
    160a:	90 81       	ld	r25, Z
    160c:	88 e0       	ldi	r24, 0x08	; 8
    160e:	89 27       	eor	r24, r25
    1610:	8c 93       	st	X, r24
    1612:	9d c1       	rjmp	.+826    	; 0x194e <DIO_enuToggelPin+0x45e>
			case DIO_PIN4:

				PORTA ^=(1<<DIO_PIN4);break;
    1614:	ab e3       	ldi	r26, 0x3B	; 59
    1616:	b0 e0       	ldi	r27, 0x00	; 0
    1618:	eb e3       	ldi	r30, 0x3B	; 59
    161a:	f0 e0       	ldi	r31, 0x00	; 0
    161c:	90 81       	ld	r25, Z
    161e:	80 e1       	ldi	r24, 0x10	; 16
    1620:	89 27       	eor	r24, r25
    1622:	8c 93       	st	X, r24
    1624:	94 c1       	rjmp	.+808    	; 0x194e <DIO_enuToggelPin+0x45e>
			case DIO_PIN5:

				PORTA ^=(1<<DIO_PIN5);break;
    1626:	ab e3       	ldi	r26, 0x3B	; 59
    1628:	b0 e0       	ldi	r27, 0x00	; 0
    162a:	eb e3       	ldi	r30, 0x3B	; 59
    162c:	f0 e0       	ldi	r31, 0x00	; 0
    162e:	90 81       	ld	r25, Z
    1630:	80 e2       	ldi	r24, 0x20	; 32
    1632:	89 27       	eor	r24, r25
    1634:	8c 93       	st	X, r24
    1636:	8b c1       	rjmp	.+790    	; 0x194e <DIO_enuToggelPin+0x45e>
			case DIO_PIN6:

				PORTA ^=(1<<DIO_PIN6);break;
    1638:	ab e3       	ldi	r26, 0x3B	; 59
    163a:	b0 e0       	ldi	r27, 0x00	; 0
    163c:	eb e3       	ldi	r30, 0x3B	; 59
    163e:	f0 e0       	ldi	r31, 0x00	; 0
    1640:	90 81       	ld	r25, Z
    1642:	80 e4       	ldi	r24, 0x40	; 64
    1644:	89 27       	eor	r24, r25
    1646:	8c 93       	st	X, r24
    1648:	82 c1       	rjmp	.+772    	; 0x194e <DIO_enuToggelPin+0x45e>
			case DIO_PIN7:

				PORTA ^=(1<<DIO_PIN7);break;
    164a:	ab e3       	ldi	r26, 0x3B	; 59
    164c:	b0 e0       	ldi	r27, 0x00	; 0
    164e:	eb e3       	ldi	r30, 0x3B	; 59
    1650:	f0 e0       	ldi	r31, 0x00	; 0
    1652:	90 81       	ld	r25, Z
    1654:	80 e8       	ldi	r24, 0x80	; 128
    1656:	89 27       	eor	r24, r25
    1658:	8c 93       	st	X, r24
    165a:	79 c1       	rjmp	.+754    	; 0x194e <DIO_enuToggelPin+0x45e>

			}
			break;
			case DIO_PORTB://SelectFromPortB
				switch(Copy_u8PinId)
    165c:	8b 81       	ldd	r24, Y+3	; 0x03
    165e:	28 2f       	mov	r18, r24
    1660:	30 e0       	ldi	r19, 0x00	; 0
    1662:	39 87       	std	Y+9, r19	; 0x09
    1664:	28 87       	std	Y+8, r18	; 0x08
    1666:	88 85       	ldd	r24, Y+8	; 0x08
    1668:	99 85       	ldd	r25, Y+9	; 0x09
    166a:	83 30       	cpi	r24, 0x03	; 3
    166c:	91 05       	cpc	r25, r1
    166e:	09 f4       	brne	.+2      	; 0x1672 <DIO_enuToggelPin+0x182>
    1670:	46 c0       	rjmp	.+140    	; 0x16fe <DIO_enuToggelPin+0x20e>
    1672:	28 85       	ldd	r18, Y+8	; 0x08
    1674:	39 85       	ldd	r19, Y+9	; 0x09
    1676:	24 30       	cpi	r18, 0x04	; 4
    1678:	31 05       	cpc	r19, r1
    167a:	7c f4       	brge	.+30     	; 0x169a <DIO_enuToggelPin+0x1aa>
    167c:	88 85       	ldd	r24, Y+8	; 0x08
    167e:	99 85       	ldd	r25, Y+9	; 0x09
    1680:	81 30       	cpi	r24, 0x01	; 1
    1682:	91 05       	cpc	r25, r1
    1684:	51 f1       	breq	.+84     	; 0x16da <DIO_enuToggelPin+0x1ea>
    1686:	28 85       	ldd	r18, Y+8	; 0x08
    1688:	39 85       	ldd	r19, Y+9	; 0x09
    168a:	22 30       	cpi	r18, 0x02	; 2
    168c:	31 05       	cpc	r19, r1
    168e:	74 f5       	brge	.+92     	; 0x16ec <DIO_enuToggelPin+0x1fc>
    1690:	88 85       	ldd	r24, Y+8	; 0x08
    1692:	99 85       	ldd	r25, Y+9	; 0x09
    1694:	00 97       	sbiw	r24, 0x00	; 0
    1696:	c1 f0       	breq	.+48     	; 0x16c8 <DIO_enuToggelPin+0x1d8>
    1698:	5a c1       	rjmp	.+692    	; 0x194e <DIO_enuToggelPin+0x45e>
    169a:	28 85       	ldd	r18, Y+8	; 0x08
    169c:	39 85       	ldd	r19, Y+9	; 0x09
    169e:	25 30       	cpi	r18, 0x05	; 5
    16a0:	31 05       	cpc	r19, r1
    16a2:	09 f4       	brne	.+2      	; 0x16a6 <DIO_enuToggelPin+0x1b6>
    16a4:	3e c0       	rjmp	.+124    	; 0x1722 <DIO_enuToggelPin+0x232>
    16a6:	88 85       	ldd	r24, Y+8	; 0x08
    16a8:	99 85       	ldd	r25, Y+9	; 0x09
    16aa:	85 30       	cpi	r24, 0x05	; 5
    16ac:	91 05       	cpc	r25, r1
    16ae:	84 f1       	brlt	.+96     	; 0x1710 <DIO_enuToggelPin+0x220>
    16b0:	28 85       	ldd	r18, Y+8	; 0x08
    16b2:	39 85       	ldd	r19, Y+9	; 0x09
    16b4:	26 30       	cpi	r18, 0x06	; 6
    16b6:	31 05       	cpc	r19, r1
    16b8:	e9 f1       	breq	.+122    	; 0x1734 <DIO_enuToggelPin+0x244>
    16ba:	88 85       	ldd	r24, Y+8	; 0x08
    16bc:	99 85       	ldd	r25, Y+9	; 0x09
    16be:	87 30       	cpi	r24, 0x07	; 7
    16c0:	91 05       	cpc	r25, r1
    16c2:	09 f4       	brne	.+2      	; 0x16c6 <DIO_enuToggelPin+0x1d6>
    16c4:	40 c0       	rjmp	.+128    	; 0x1746 <DIO_enuToggelPin+0x256>
    16c6:	43 c1       	rjmp	.+646    	; 0x194e <DIO_enuToggelPin+0x45e>
				{
				case DIO_PIN0:

					PORTB ^=(1<<DIO_PIN0);break;
    16c8:	a8 e3       	ldi	r26, 0x38	; 56
    16ca:	b0 e0       	ldi	r27, 0x00	; 0
    16cc:	e8 e3       	ldi	r30, 0x38	; 56
    16ce:	f0 e0       	ldi	r31, 0x00	; 0
    16d0:	90 81       	ld	r25, Z
    16d2:	81 e0       	ldi	r24, 0x01	; 1
    16d4:	89 27       	eor	r24, r25
    16d6:	8c 93       	st	X, r24
    16d8:	3a c1       	rjmp	.+628    	; 0x194e <DIO_enuToggelPin+0x45e>
				case DIO_PIN1:

					PORTB ^=(1<<DIO_PIN1);break;
    16da:	a8 e3       	ldi	r26, 0x38	; 56
    16dc:	b0 e0       	ldi	r27, 0x00	; 0
    16de:	e8 e3       	ldi	r30, 0x38	; 56
    16e0:	f0 e0       	ldi	r31, 0x00	; 0
    16e2:	90 81       	ld	r25, Z
    16e4:	82 e0       	ldi	r24, 0x02	; 2
    16e6:	89 27       	eor	r24, r25
    16e8:	8c 93       	st	X, r24
    16ea:	31 c1       	rjmp	.+610    	; 0x194e <DIO_enuToggelPin+0x45e>
				case DIO_PIN2:

					PORTB ^=(1<<DIO_PIN2);break;
    16ec:	a8 e3       	ldi	r26, 0x38	; 56
    16ee:	b0 e0       	ldi	r27, 0x00	; 0
    16f0:	e8 e3       	ldi	r30, 0x38	; 56
    16f2:	f0 e0       	ldi	r31, 0x00	; 0
    16f4:	90 81       	ld	r25, Z
    16f6:	84 e0       	ldi	r24, 0x04	; 4
    16f8:	89 27       	eor	r24, r25
    16fa:	8c 93       	st	X, r24
    16fc:	28 c1       	rjmp	.+592    	; 0x194e <DIO_enuToggelPin+0x45e>
				case DIO_PIN3:

					PORTB ^=(1<<DIO_PIN3);break;
    16fe:	a8 e3       	ldi	r26, 0x38	; 56
    1700:	b0 e0       	ldi	r27, 0x00	; 0
    1702:	e8 e3       	ldi	r30, 0x38	; 56
    1704:	f0 e0       	ldi	r31, 0x00	; 0
    1706:	90 81       	ld	r25, Z
    1708:	88 e0       	ldi	r24, 0x08	; 8
    170a:	89 27       	eor	r24, r25
    170c:	8c 93       	st	X, r24
    170e:	1f c1       	rjmp	.+574    	; 0x194e <DIO_enuToggelPin+0x45e>
				case DIO_PIN4:

					PORTB ^=(1<<DIO_PIN4);break;
    1710:	a8 e3       	ldi	r26, 0x38	; 56
    1712:	b0 e0       	ldi	r27, 0x00	; 0
    1714:	e8 e3       	ldi	r30, 0x38	; 56
    1716:	f0 e0       	ldi	r31, 0x00	; 0
    1718:	90 81       	ld	r25, Z
    171a:	80 e1       	ldi	r24, 0x10	; 16
    171c:	89 27       	eor	r24, r25
    171e:	8c 93       	st	X, r24
    1720:	16 c1       	rjmp	.+556    	; 0x194e <DIO_enuToggelPin+0x45e>
				case DIO_PIN5:

					PORTB ^=(1<<DIO_PIN5);break;
    1722:	a8 e3       	ldi	r26, 0x38	; 56
    1724:	b0 e0       	ldi	r27, 0x00	; 0
    1726:	e8 e3       	ldi	r30, 0x38	; 56
    1728:	f0 e0       	ldi	r31, 0x00	; 0
    172a:	90 81       	ld	r25, Z
    172c:	80 e2       	ldi	r24, 0x20	; 32
    172e:	89 27       	eor	r24, r25
    1730:	8c 93       	st	X, r24
    1732:	0d c1       	rjmp	.+538    	; 0x194e <DIO_enuToggelPin+0x45e>
				case DIO_PIN6:

					PORTB ^=(1<<DIO_PIN6);break;
    1734:	a8 e3       	ldi	r26, 0x38	; 56
    1736:	b0 e0       	ldi	r27, 0x00	; 0
    1738:	e8 e3       	ldi	r30, 0x38	; 56
    173a:	f0 e0       	ldi	r31, 0x00	; 0
    173c:	90 81       	ld	r25, Z
    173e:	80 e4       	ldi	r24, 0x40	; 64
    1740:	89 27       	eor	r24, r25
    1742:	8c 93       	st	X, r24
    1744:	04 c1       	rjmp	.+520    	; 0x194e <DIO_enuToggelPin+0x45e>
				case DIO_PIN7:

					PORTB ^=(1<<DIO_PIN7);break;
    1746:	a8 e3       	ldi	r26, 0x38	; 56
    1748:	b0 e0       	ldi	r27, 0x00	; 0
    174a:	e8 e3       	ldi	r30, 0x38	; 56
    174c:	f0 e0       	ldi	r31, 0x00	; 0
    174e:	90 81       	ld	r25, Z
    1750:	80 e8       	ldi	r24, 0x80	; 128
    1752:	89 27       	eor	r24, r25
    1754:	8c 93       	st	X, r24
    1756:	fb c0       	rjmp	.+502    	; 0x194e <DIO_enuToggelPin+0x45e>
				}
				break;
				case DIO_PORTC://SelectFromPortC
					switch(Copy_u8PinId)
    1758:	8b 81       	ldd	r24, Y+3	; 0x03
    175a:	28 2f       	mov	r18, r24
    175c:	30 e0       	ldi	r19, 0x00	; 0
    175e:	3f 83       	std	Y+7, r19	; 0x07
    1760:	2e 83       	std	Y+6, r18	; 0x06
    1762:	8e 81       	ldd	r24, Y+6	; 0x06
    1764:	9f 81       	ldd	r25, Y+7	; 0x07
    1766:	83 30       	cpi	r24, 0x03	; 3
    1768:	91 05       	cpc	r25, r1
    176a:	09 f4       	brne	.+2      	; 0x176e <DIO_enuToggelPin+0x27e>
    176c:	46 c0       	rjmp	.+140    	; 0x17fa <DIO_enuToggelPin+0x30a>
    176e:	2e 81       	ldd	r18, Y+6	; 0x06
    1770:	3f 81       	ldd	r19, Y+7	; 0x07
    1772:	24 30       	cpi	r18, 0x04	; 4
    1774:	31 05       	cpc	r19, r1
    1776:	7c f4       	brge	.+30     	; 0x1796 <DIO_enuToggelPin+0x2a6>
    1778:	8e 81       	ldd	r24, Y+6	; 0x06
    177a:	9f 81       	ldd	r25, Y+7	; 0x07
    177c:	81 30       	cpi	r24, 0x01	; 1
    177e:	91 05       	cpc	r25, r1
    1780:	51 f1       	breq	.+84     	; 0x17d6 <DIO_enuToggelPin+0x2e6>
    1782:	2e 81       	ldd	r18, Y+6	; 0x06
    1784:	3f 81       	ldd	r19, Y+7	; 0x07
    1786:	22 30       	cpi	r18, 0x02	; 2
    1788:	31 05       	cpc	r19, r1
    178a:	74 f5       	brge	.+92     	; 0x17e8 <DIO_enuToggelPin+0x2f8>
    178c:	8e 81       	ldd	r24, Y+6	; 0x06
    178e:	9f 81       	ldd	r25, Y+7	; 0x07
    1790:	00 97       	sbiw	r24, 0x00	; 0
    1792:	c1 f0       	breq	.+48     	; 0x17c4 <DIO_enuToggelPin+0x2d4>
    1794:	dc c0       	rjmp	.+440    	; 0x194e <DIO_enuToggelPin+0x45e>
    1796:	2e 81       	ldd	r18, Y+6	; 0x06
    1798:	3f 81       	ldd	r19, Y+7	; 0x07
    179a:	25 30       	cpi	r18, 0x05	; 5
    179c:	31 05       	cpc	r19, r1
    179e:	09 f4       	brne	.+2      	; 0x17a2 <DIO_enuToggelPin+0x2b2>
    17a0:	3e c0       	rjmp	.+124    	; 0x181e <DIO_enuToggelPin+0x32e>
    17a2:	8e 81       	ldd	r24, Y+6	; 0x06
    17a4:	9f 81       	ldd	r25, Y+7	; 0x07
    17a6:	85 30       	cpi	r24, 0x05	; 5
    17a8:	91 05       	cpc	r25, r1
    17aa:	84 f1       	brlt	.+96     	; 0x180c <DIO_enuToggelPin+0x31c>
    17ac:	2e 81       	ldd	r18, Y+6	; 0x06
    17ae:	3f 81       	ldd	r19, Y+7	; 0x07
    17b0:	26 30       	cpi	r18, 0x06	; 6
    17b2:	31 05       	cpc	r19, r1
    17b4:	e9 f1       	breq	.+122    	; 0x1830 <DIO_enuToggelPin+0x340>
    17b6:	8e 81       	ldd	r24, Y+6	; 0x06
    17b8:	9f 81       	ldd	r25, Y+7	; 0x07
    17ba:	87 30       	cpi	r24, 0x07	; 7
    17bc:	91 05       	cpc	r25, r1
    17be:	09 f4       	brne	.+2      	; 0x17c2 <DIO_enuToggelPin+0x2d2>
    17c0:	40 c0       	rjmp	.+128    	; 0x1842 <DIO_enuToggelPin+0x352>
    17c2:	c5 c0       	rjmp	.+394    	; 0x194e <DIO_enuToggelPin+0x45e>
					{
					case DIO_PIN0:

						PORTC ^=(1<<DIO_PIN0);break;
    17c4:	a5 e3       	ldi	r26, 0x35	; 53
    17c6:	b0 e0       	ldi	r27, 0x00	; 0
    17c8:	e5 e3       	ldi	r30, 0x35	; 53
    17ca:	f0 e0       	ldi	r31, 0x00	; 0
    17cc:	90 81       	ld	r25, Z
    17ce:	81 e0       	ldi	r24, 0x01	; 1
    17d0:	89 27       	eor	r24, r25
    17d2:	8c 93       	st	X, r24
    17d4:	bc c0       	rjmp	.+376    	; 0x194e <DIO_enuToggelPin+0x45e>
					case DIO_PIN1:

						PORTC ^=(1<<DIO_PIN1);break;
    17d6:	a5 e3       	ldi	r26, 0x35	; 53
    17d8:	b0 e0       	ldi	r27, 0x00	; 0
    17da:	e5 e3       	ldi	r30, 0x35	; 53
    17dc:	f0 e0       	ldi	r31, 0x00	; 0
    17de:	90 81       	ld	r25, Z
    17e0:	82 e0       	ldi	r24, 0x02	; 2
    17e2:	89 27       	eor	r24, r25
    17e4:	8c 93       	st	X, r24
    17e6:	b3 c0       	rjmp	.+358    	; 0x194e <DIO_enuToggelPin+0x45e>
					case DIO_PIN2:

						PORTC ^=(1<<DIO_PIN2);break;
    17e8:	a5 e3       	ldi	r26, 0x35	; 53
    17ea:	b0 e0       	ldi	r27, 0x00	; 0
    17ec:	e5 e3       	ldi	r30, 0x35	; 53
    17ee:	f0 e0       	ldi	r31, 0x00	; 0
    17f0:	90 81       	ld	r25, Z
    17f2:	84 e0       	ldi	r24, 0x04	; 4
    17f4:	89 27       	eor	r24, r25
    17f6:	8c 93       	st	X, r24
    17f8:	aa c0       	rjmp	.+340    	; 0x194e <DIO_enuToggelPin+0x45e>
					case DIO_PIN3:

						PORTC ^=(1<<DIO_PIN3);break;
    17fa:	a5 e3       	ldi	r26, 0x35	; 53
    17fc:	b0 e0       	ldi	r27, 0x00	; 0
    17fe:	e5 e3       	ldi	r30, 0x35	; 53
    1800:	f0 e0       	ldi	r31, 0x00	; 0
    1802:	90 81       	ld	r25, Z
    1804:	88 e0       	ldi	r24, 0x08	; 8
    1806:	89 27       	eor	r24, r25
    1808:	8c 93       	st	X, r24
    180a:	a1 c0       	rjmp	.+322    	; 0x194e <DIO_enuToggelPin+0x45e>
					case DIO_PIN4:

						PORTC ^=(1<<DIO_PIN4);break;
    180c:	a5 e3       	ldi	r26, 0x35	; 53
    180e:	b0 e0       	ldi	r27, 0x00	; 0
    1810:	e5 e3       	ldi	r30, 0x35	; 53
    1812:	f0 e0       	ldi	r31, 0x00	; 0
    1814:	90 81       	ld	r25, Z
    1816:	80 e1       	ldi	r24, 0x10	; 16
    1818:	89 27       	eor	r24, r25
    181a:	8c 93       	st	X, r24
    181c:	98 c0       	rjmp	.+304    	; 0x194e <DIO_enuToggelPin+0x45e>
					case DIO_PIN5:

						PORTC ^=(1<<DIO_PIN5);break;
    181e:	a5 e3       	ldi	r26, 0x35	; 53
    1820:	b0 e0       	ldi	r27, 0x00	; 0
    1822:	e5 e3       	ldi	r30, 0x35	; 53
    1824:	f0 e0       	ldi	r31, 0x00	; 0
    1826:	90 81       	ld	r25, Z
    1828:	80 e2       	ldi	r24, 0x20	; 32
    182a:	89 27       	eor	r24, r25
    182c:	8c 93       	st	X, r24
    182e:	8f c0       	rjmp	.+286    	; 0x194e <DIO_enuToggelPin+0x45e>
					case DIO_PIN6:

						PORTC ^=(1<<DIO_PIN6);break;
    1830:	a5 e3       	ldi	r26, 0x35	; 53
    1832:	b0 e0       	ldi	r27, 0x00	; 0
    1834:	e5 e3       	ldi	r30, 0x35	; 53
    1836:	f0 e0       	ldi	r31, 0x00	; 0
    1838:	90 81       	ld	r25, Z
    183a:	80 e4       	ldi	r24, 0x40	; 64
    183c:	89 27       	eor	r24, r25
    183e:	8c 93       	st	X, r24
    1840:	86 c0       	rjmp	.+268    	; 0x194e <DIO_enuToggelPin+0x45e>
					case DIO_PIN7:

						PORTC ^=(1<<DIO_PIN7);break;
    1842:	a5 e3       	ldi	r26, 0x35	; 53
    1844:	b0 e0       	ldi	r27, 0x00	; 0
    1846:	e5 e3       	ldi	r30, 0x35	; 53
    1848:	f0 e0       	ldi	r31, 0x00	; 0
    184a:	90 81       	ld	r25, Z
    184c:	80 e8       	ldi	r24, 0x80	; 128
    184e:	89 27       	eor	r24, r25
    1850:	8c 93       	st	X, r24
    1852:	7d c0       	rjmp	.+250    	; 0x194e <DIO_enuToggelPin+0x45e>
					}
					break;
					case DIO_PORTD://SelectFromPortD
						switch(Copy_u8PinId)
    1854:	8b 81       	ldd	r24, Y+3	; 0x03
    1856:	28 2f       	mov	r18, r24
    1858:	30 e0       	ldi	r19, 0x00	; 0
    185a:	3d 83       	std	Y+5, r19	; 0x05
    185c:	2c 83       	std	Y+4, r18	; 0x04
    185e:	8c 81       	ldd	r24, Y+4	; 0x04
    1860:	9d 81       	ldd	r25, Y+5	; 0x05
    1862:	83 30       	cpi	r24, 0x03	; 3
    1864:	91 05       	cpc	r25, r1
    1866:	09 f4       	brne	.+2      	; 0x186a <DIO_enuToggelPin+0x37a>
    1868:	46 c0       	rjmp	.+140    	; 0x18f6 <DIO_enuToggelPin+0x406>
    186a:	2c 81       	ldd	r18, Y+4	; 0x04
    186c:	3d 81       	ldd	r19, Y+5	; 0x05
    186e:	24 30       	cpi	r18, 0x04	; 4
    1870:	31 05       	cpc	r19, r1
    1872:	7c f4       	brge	.+30     	; 0x1892 <DIO_enuToggelPin+0x3a2>
    1874:	8c 81       	ldd	r24, Y+4	; 0x04
    1876:	9d 81       	ldd	r25, Y+5	; 0x05
    1878:	81 30       	cpi	r24, 0x01	; 1
    187a:	91 05       	cpc	r25, r1
    187c:	51 f1       	breq	.+84     	; 0x18d2 <DIO_enuToggelPin+0x3e2>
    187e:	2c 81       	ldd	r18, Y+4	; 0x04
    1880:	3d 81       	ldd	r19, Y+5	; 0x05
    1882:	22 30       	cpi	r18, 0x02	; 2
    1884:	31 05       	cpc	r19, r1
    1886:	74 f5       	brge	.+92     	; 0x18e4 <DIO_enuToggelPin+0x3f4>
    1888:	8c 81       	ldd	r24, Y+4	; 0x04
    188a:	9d 81       	ldd	r25, Y+5	; 0x05
    188c:	00 97       	sbiw	r24, 0x00	; 0
    188e:	c1 f0       	breq	.+48     	; 0x18c0 <DIO_enuToggelPin+0x3d0>
    1890:	5e c0       	rjmp	.+188    	; 0x194e <DIO_enuToggelPin+0x45e>
    1892:	2c 81       	ldd	r18, Y+4	; 0x04
    1894:	3d 81       	ldd	r19, Y+5	; 0x05
    1896:	25 30       	cpi	r18, 0x05	; 5
    1898:	31 05       	cpc	r19, r1
    189a:	09 f4       	brne	.+2      	; 0x189e <DIO_enuToggelPin+0x3ae>
    189c:	3e c0       	rjmp	.+124    	; 0x191a <DIO_enuToggelPin+0x42a>
    189e:	8c 81       	ldd	r24, Y+4	; 0x04
    18a0:	9d 81       	ldd	r25, Y+5	; 0x05
    18a2:	85 30       	cpi	r24, 0x05	; 5
    18a4:	91 05       	cpc	r25, r1
    18a6:	84 f1       	brlt	.+96     	; 0x1908 <DIO_enuToggelPin+0x418>
    18a8:	2c 81       	ldd	r18, Y+4	; 0x04
    18aa:	3d 81       	ldd	r19, Y+5	; 0x05
    18ac:	26 30       	cpi	r18, 0x06	; 6
    18ae:	31 05       	cpc	r19, r1
    18b0:	e9 f1       	breq	.+122    	; 0x192c <DIO_enuToggelPin+0x43c>
    18b2:	8c 81       	ldd	r24, Y+4	; 0x04
    18b4:	9d 81       	ldd	r25, Y+5	; 0x05
    18b6:	87 30       	cpi	r24, 0x07	; 7
    18b8:	91 05       	cpc	r25, r1
    18ba:	09 f4       	brne	.+2      	; 0x18be <DIO_enuToggelPin+0x3ce>
    18bc:	40 c0       	rjmp	.+128    	; 0x193e <DIO_enuToggelPin+0x44e>
    18be:	47 c0       	rjmp	.+142    	; 0x194e <DIO_enuToggelPin+0x45e>
						{
						case DIO_PIN0:

							PORTD ^=(1<<DIO_PIN0);break;
    18c0:	a2 e3       	ldi	r26, 0x32	; 50
    18c2:	b0 e0       	ldi	r27, 0x00	; 0
    18c4:	e2 e3       	ldi	r30, 0x32	; 50
    18c6:	f0 e0       	ldi	r31, 0x00	; 0
    18c8:	90 81       	ld	r25, Z
    18ca:	81 e0       	ldi	r24, 0x01	; 1
    18cc:	89 27       	eor	r24, r25
    18ce:	8c 93       	st	X, r24
    18d0:	3e c0       	rjmp	.+124    	; 0x194e <DIO_enuToggelPin+0x45e>
						case DIO_PIN1:

							PORTD ^=(1<<DIO_PIN1);break;
    18d2:	a2 e3       	ldi	r26, 0x32	; 50
    18d4:	b0 e0       	ldi	r27, 0x00	; 0
    18d6:	e2 e3       	ldi	r30, 0x32	; 50
    18d8:	f0 e0       	ldi	r31, 0x00	; 0
    18da:	90 81       	ld	r25, Z
    18dc:	82 e0       	ldi	r24, 0x02	; 2
    18de:	89 27       	eor	r24, r25
    18e0:	8c 93       	st	X, r24
    18e2:	35 c0       	rjmp	.+106    	; 0x194e <DIO_enuToggelPin+0x45e>
						case DIO_PIN2:

							PORTD ^=(1<<DIO_PIN2);break;
    18e4:	a2 e3       	ldi	r26, 0x32	; 50
    18e6:	b0 e0       	ldi	r27, 0x00	; 0
    18e8:	e2 e3       	ldi	r30, 0x32	; 50
    18ea:	f0 e0       	ldi	r31, 0x00	; 0
    18ec:	90 81       	ld	r25, Z
    18ee:	84 e0       	ldi	r24, 0x04	; 4
    18f0:	89 27       	eor	r24, r25
    18f2:	8c 93       	st	X, r24
    18f4:	2c c0       	rjmp	.+88     	; 0x194e <DIO_enuToggelPin+0x45e>
						case DIO_PIN3:

							PORTD ^=(1<<DIO_PIN3);break;
    18f6:	a2 e3       	ldi	r26, 0x32	; 50
    18f8:	b0 e0       	ldi	r27, 0x00	; 0
    18fa:	e2 e3       	ldi	r30, 0x32	; 50
    18fc:	f0 e0       	ldi	r31, 0x00	; 0
    18fe:	90 81       	ld	r25, Z
    1900:	88 e0       	ldi	r24, 0x08	; 8
    1902:	89 27       	eor	r24, r25
    1904:	8c 93       	st	X, r24
    1906:	23 c0       	rjmp	.+70     	; 0x194e <DIO_enuToggelPin+0x45e>
						case DIO_PIN4:

							PORTD ^=(1<<DIO_PIN4);break;
    1908:	a2 e3       	ldi	r26, 0x32	; 50
    190a:	b0 e0       	ldi	r27, 0x00	; 0
    190c:	e2 e3       	ldi	r30, 0x32	; 50
    190e:	f0 e0       	ldi	r31, 0x00	; 0
    1910:	90 81       	ld	r25, Z
    1912:	80 e1       	ldi	r24, 0x10	; 16
    1914:	89 27       	eor	r24, r25
    1916:	8c 93       	st	X, r24
    1918:	1a c0       	rjmp	.+52     	; 0x194e <DIO_enuToggelPin+0x45e>
						case DIO_PIN5:

							PORTD ^=(1<<DIO_PIN5);break;
    191a:	a2 e3       	ldi	r26, 0x32	; 50
    191c:	b0 e0       	ldi	r27, 0x00	; 0
    191e:	e2 e3       	ldi	r30, 0x32	; 50
    1920:	f0 e0       	ldi	r31, 0x00	; 0
    1922:	90 81       	ld	r25, Z
    1924:	80 e2       	ldi	r24, 0x20	; 32
    1926:	89 27       	eor	r24, r25
    1928:	8c 93       	st	X, r24
    192a:	11 c0       	rjmp	.+34     	; 0x194e <DIO_enuToggelPin+0x45e>
						case DIO_PIN6:

							PORTD ^=(1<<DIO_PIN6);break;
    192c:	a2 e3       	ldi	r26, 0x32	; 50
    192e:	b0 e0       	ldi	r27, 0x00	; 0
    1930:	e2 e3       	ldi	r30, 0x32	; 50
    1932:	f0 e0       	ldi	r31, 0x00	; 0
    1934:	90 81       	ld	r25, Z
    1936:	80 e4       	ldi	r24, 0x40	; 64
    1938:	89 27       	eor	r24, r25
    193a:	8c 93       	st	X, r24
    193c:	08 c0       	rjmp	.+16     	; 0x194e <DIO_enuToggelPin+0x45e>
						case DIO_PIN7:

							PORTD ^=(1<<DIO_PIN7);break;
    193e:	a2 e3       	ldi	r26, 0x32	; 50
    1940:	b0 e0       	ldi	r27, 0x00	; 0
    1942:	e2 e3       	ldi	r30, 0x32	; 50
    1944:	f0 e0       	ldi	r31, 0x00	; 0
    1946:	90 81       	ld	r25, Z
    1948:	80 e8       	ldi	r24, 0x80	; 128
    194a:	89 27       	eor	r24, r25
    194c:	8c 93       	st	X, r24

						}
						break;

		}
		Local_enuErrorState = ES_OK;
    194e:	19 82       	std	Y+1, r1	; 0x01
    1950:	02 c0       	rjmp	.+4      	; 0x1956 <DIO_enuToggelPin+0x466>
	}
	else
	{
		Local_enuErrorState = ES_Out_Of_Range;
    1952:	83 e0       	ldi	r24, 0x03	; 3
    1954:	89 83       	std	Y+1, r24	; 0x01
	}


	return Local_enuErrorState;
    1956:	89 81       	ldd	r24, Y+1	; 0x01
}
    1958:	2d 96       	adiw	r28, 0x0d	; 13
    195a:	0f b6       	in	r0, 0x3f	; 63
    195c:	f8 94       	cli
    195e:	de bf       	out	0x3e, r29	; 62
    1960:	0f be       	out	0x3f, r0	; 63
    1962:	cd bf       	out	0x3d, r28	; 61
    1964:	cf 91       	pop	r28
    1966:	df 91       	pop	r29
    1968:	08 95       	ret

0000196a <DIO_enuGetPinVal>:
ES_t DIO_enuGetPinVal(u8 Copy_u8PortId,u8 Copy_u8PinId,u8 *Copy_u8Value)
{
    196a:	df 93       	push	r29
    196c:	cf 93       	push	r28
    196e:	cd b7       	in	r28, 0x3d	; 61
    1970:	de b7       	in	r29, 0x3e	; 62
    1972:	2f 97       	sbiw	r28, 0x0f	; 15
    1974:	0f b6       	in	r0, 0x3f	; 63
    1976:	f8 94       	cli
    1978:	de bf       	out	0x3e, r29	; 62
    197a:	0f be       	out	0x3f, r0	; 63
    197c:	cd bf       	out	0x3d, r28	; 61
    197e:	8a 83       	std	Y+2, r24	; 0x02
    1980:	6b 83       	std	Y+3, r22	; 0x03
    1982:	5d 83       	std	Y+5, r21	; 0x05
    1984:	4c 83       	std	Y+4, r20	; 0x04
	ES_t Local_enuErrorState = ES_NOK;
    1986:	81 e0       	ldi	r24, 0x01	; 1
    1988:	89 83       	std	Y+1, r24	; 0x01

	if(Copy_u8PortId <= DIO_PORTD && Copy_u8PinId<= DIO_PIN7)
    198a:	8a 81       	ldd	r24, Y+2	; 0x02
    198c:	84 30       	cpi	r24, 0x04	; 4
    198e:	08 f0       	brcs	.+2      	; 0x1992 <DIO_enuGetPinVal+0x28>
    1990:	47 c2       	rjmp	.+1166   	; 0x1e20 <DIO_enuGetPinVal+0x4b6>
    1992:	8b 81       	ldd	r24, Y+3	; 0x03
    1994:	88 30       	cpi	r24, 0x08	; 8
    1996:	08 f0       	brcs	.+2      	; 0x199a <DIO_enuGetPinVal+0x30>
    1998:	43 c2       	rjmp	.+1158   	; 0x1e20 <DIO_enuGetPinVal+0x4b6>
	{
		switch(Copy_u8PortId)
    199a:	8a 81       	ldd	r24, Y+2	; 0x02
    199c:	28 2f       	mov	r18, r24
    199e:	30 e0       	ldi	r19, 0x00	; 0
    19a0:	3f 87       	std	Y+15, r19	; 0x0f
    19a2:	2e 87       	std	Y+14, r18	; 0x0e
    19a4:	8e 85       	ldd	r24, Y+14	; 0x0e
    19a6:	9f 85       	ldd	r25, Y+15	; 0x0f
    19a8:	81 30       	cpi	r24, 0x01	; 1
    19aa:	91 05       	cpc	r25, r1
    19ac:	09 f4       	brne	.+2      	; 0x19b0 <DIO_enuGetPinVal+0x46>
    19ae:	9f c0       	rjmp	.+318    	; 0x1aee <DIO_enuGetPinVal+0x184>
    19b0:	2e 85       	ldd	r18, Y+14	; 0x0e
    19b2:	3f 85       	ldd	r19, Y+15	; 0x0f
    19b4:	22 30       	cpi	r18, 0x02	; 2
    19b6:	31 05       	cpc	r19, r1
    19b8:	2c f4       	brge	.+10     	; 0x19c4 <DIO_enuGetPinVal+0x5a>
    19ba:	8e 85       	ldd	r24, Y+14	; 0x0e
    19bc:	9f 85       	ldd	r25, Y+15	; 0x0f
    19be:	00 97       	sbiw	r24, 0x00	; 0
    19c0:	71 f0       	breq	.+28     	; 0x19de <DIO_enuGetPinVal+0x74>
    19c2:	2c c2       	rjmp	.+1112   	; 0x1e1c <DIO_enuGetPinVal+0x4b2>
    19c4:	2e 85       	ldd	r18, Y+14	; 0x0e
    19c6:	3f 85       	ldd	r19, Y+15	; 0x0f
    19c8:	22 30       	cpi	r18, 0x02	; 2
    19ca:	31 05       	cpc	r19, r1
    19cc:	09 f4       	brne	.+2      	; 0x19d0 <DIO_enuGetPinVal+0x66>
    19ce:	17 c1       	rjmp	.+558    	; 0x1bfe <DIO_enuGetPinVal+0x294>
    19d0:	8e 85       	ldd	r24, Y+14	; 0x0e
    19d2:	9f 85       	ldd	r25, Y+15	; 0x0f
    19d4:	83 30       	cpi	r24, 0x03	; 3
    19d6:	91 05       	cpc	r25, r1
    19d8:	09 f4       	brne	.+2      	; 0x19dc <DIO_enuGetPinVal+0x72>
    19da:	99 c1       	rjmp	.+818    	; 0x1d0e <DIO_enuGetPinVal+0x3a4>
    19dc:	1f c2       	rjmp	.+1086   	; 0x1e1c <DIO_enuGetPinVal+0x4b2>
		{
		case DIO_PORTA://SelectFromPortA
			switch(Copy_u8PinId)
    19de:	8b 81       	ldd	r24, Y+3	; 0x03
    19e0:	28 2f       	mov	r18, r24
    19e2:	30 e0       	ldi	r19, 0x00	; 0
    19e4:	3d 87       	std	Y+13, r19	; 0x0d
    19e6:	2c 87       	std	Y+12, r18	; 0x0c
    19e8:	8c 85       	ldd	r24, Y+12	; 0x0c
    19ea:	9d 85       	ldd	r25, Y+13	; 0x0d
    19ec:	83 30       	cpi	r24, 0x03	; 3
    19ee:	91 05       	cpc	r25, r1
    19f0:	09 f4       	brne	.+2      	; 0x19f4 <DIO_enuGetPinVal+0x8a>
    19f2:	47 c0       	rjmp	.+142    	; 0x1a82 <DIO_enuGetPinVal+0x118>
    19f4:	2c 85       	ldd	r18, Y+12	; 0x0c
    19f6:	3d 85       	ldd	r19, Y+13	; 0x0d
    19f8:	24 30       	cpi	r18, 0x04	; 4
    19fa:	31 05       	cpc	r19, r1
    19fc:	7c f4       	brge	.+30     	; 0x1a1c <DIO_enuGetPinVal+0xb2>
    19fe:	8c 85       	ldd	r24, Y+12	; 0x0c
    1a00:	9d 85       	ldd	r25, Y+13	; 0x0d
    1a02:	81 30       	cpi	r24, 0x01	; 1
    1a04:	91 05       	cpc	r25, r1
    1a06:	51 f1       	breq	.+84     	; 0x1a5c <DIO_enuGetPinVal+0xf2>
    1a08:	2c 85       	ldd	r18, Y+12	; 0x0c
    1a0a:	3d 85       	ldd	r19, Y+13	; 0x0d
    1a0c:	22 30       	cpi	r18, 0x02	; 2
    1a0e:	31 05       	cpc	r19, r1
    1a10:	74 f5       	brge	.+92     	; 0x1a6e <DIO_enuGetPinVal+0x104>
    1a12:	8c 85       	ldd	r24, Y+12	; 0x0c
    1a14:	9d 85       	ldd	r25, Y+13	; 0x0d
    1a16:	00 97       	sbiw	r24, 0x00	; 0
    1a18:	c9 f0       	breq	.+50     	; 0x1a4c <DIO_enuGetPinVal+0xe2>
    1a1a:	00 c2       	rjmp	.+1024   	; 0x1e1c <DIO_enuGetPinVal+0x4b2>
    1a1c:	2c 85       	ldd	r18, Y+12	; 0x0c
    1a1e:	3d 85       	ldd	r19, Y+13	; 0x0d
    1a20:	25 30       	cpi	r18, 0x05	; 5
    1a22:	31 05       	cpc	r19, r1
    1a24:	09 f4       	brne	.+2      	; 0x1a28 <DIO_enuGetPinVal+0xbe>
    1a26:	42 c0       	rjmp	.+132    	; 0x1aac <DIO_enuGetPinVal+0x142>
    1a28:	8c 85       	ldd	r24, Y+12	; 0x0c
    1a2a:	9d 85       	ldd	r25, Y+13	; 0x0d
    1a2c:	85 30       	cpi	r24, 0x05	; 5
    1a2e:	91 05       	cpc	r25, r1
    1a30:	9c f1       	brlt	.+102    	; 0x1a98 <DIO_enuGetPinVal+0x12e>
    1a32:	2c 85       	ldd	r18, Y+12	; 0x0c
    1a34:	3d 85       	ldd	r19, Y+13	; 0x0d
    1a36:	26 30       	cpi	r18, 0x06	; 6
    1a38:	31 05       	cpc	r19, r1
    1a3a:	09 f4       	brne	.+2      	; 0x1a3e <DIO_enuGetPinVal+0xd4>
    1a3c:	42 c0       	rjmp	.+132    	; 0x1ac2 <DIO_enuGetPinVal+0x158>
    1a3e:	8c 85       	ldd	r24, Y+12	; 0x0c
    1a40:	9d 85       	ldd	r25, Y+13	; 0x0d
    1a42:	87 30       	cpi	r24, 0x07	; 7
    1a44:	91 05       	cpc	r25, r1
    1a46:	09 f4       	brne	.+2      	; 0x1a4a <DIO_enuGetPinVal+0xe0>
    1a48:	48 c0       	rjmp	.+144    	; 0x1ada <DIO_enuGetPinVal+0x170>
    1a4a:	e8 c1       	rjmp	.+976    	; 0x1e1c <DIO_enuGetPinVal+0x4b2>
			{
			case DIO_PIN0:

				*Copy_u8Value =((PINA>>DIO_PIN0)&1);break;
    1a4c:	e9 e3       	ldi	r30, 0x39	; 57
    1a4e:	f0 e0       	ldi	r31, 0x00	; 0
    1a50:	80 81       	ld	r24, Z
    1a52:	81 70       	andi	r24, 0x01	; 1
    1a54:	ec 81       	ldd	r30, Y+4	; 0x04
    1a56:	fd 81       	ldd	r31, Y+5	; 0x05
    1a58:	80 83       	st	Z, r24
    1a5a:	e0 c1       	rjmp	.+960    	; 0x1e1c <DIO_enuGetPinVal+0x4b2>
			case DIO_PIN1:

				*Copy_u8Value =((PINA>>DIO_PIN1)&1);break;
    1a5c:	e9 e3       	ldi	r30, 0x39	; 57
    1a5e:	f0 e0       	ldi	r31, 0x00	; 0
    1a60:	80 81       	ld	r24, Z
    1a62:	86 95       	lsr	r24
    1a64:	81 70       	andi	r24, 0x01	; 1
    1a66:	ec 81       	ldd	r30, Y+4	; 0x04
    1a68:	fd 81       	ldd	r31, Y+5	; 0x05
    1a6a:	80 83       	st	Z, r24
    1a6c:	d7 c1       	rjmp	.+942    	; 0x1e1c <DIO_enuGetPinVal+0x4b2>
			case DIO_PIN2:

				*Copy_u8Value =((PINA>>DIO_PIN2)&1);break;
    1a6e:	e9 e3       	ldi	r30, 0x39	; 57
    1a70:	f0 e0       	ldi	r31, 0x00	; 0
    1a72:	80 81       	ld	r24, Z
    1a74:	86 95       	lsr	r24
    1a76:	86 95       	lsr	r24
    1a78:	81 70       	andi	r24, 0x01	; 1
    1a7a:	ec 81       	ldd	r30, Y+4	; 0x04
    1a7c:	fd 81       	ldd	r31, Y+5	; 0x05
    1a7e:	80 83       	st	Z, r24
    1a80:	cd c1       	rjmp	.+922    	; 0x1e1c <DIO_enuGetPinVal+0x4b2>
			case DIO_PIN3:

				*Copy_u8Value =((PINA>>DIO_PIN3)&1);break;
    1a82:	e9 e3       	ldi	r30, 0x39	; 57
    1a84:	f0 e0       	ldi	r31, 0x00	; 0
    1a86:	80 81       	ld	r24, Z
    1a88:	86 95       	lsr	r24
    1a8a:	86 95       	lsr	r24
    1a8c:	86 95       	lsr	r24
    1a8e:	81 70       	andi	r24, 0x01	; 1
    1a90:	ec 81       	ldd	r30, Y+4	; 0x04
    1a92:	fd 81       	ldd	r31, Y+5	; 0x05
    1a94:	80 83       	st	Z, r24
    1a96:	c2 c1       	rjmp	.+900    	; 0x1e1c <DIO_enuGetPinVal+0x4b2>
			case DIO_PIN4:

				*Copy_u8Value =((PINA>>DIO_PIN4)&1);break;
    1a98:	e9 e3       	ldi	r30, 0x39	; 57
    1a9a:	f0 e0       	ldi	r31, 0x00	; 0
    1a9c:	80 81       	ld	r24, Z
    1a9e:	82 95       	swap	r24
    1aa0:	8f 70       	andi	r24, 0x0F	; 15
    1aa2:	81 70       	andi	r24, 0x01	; 1
    1aa4:	ec 81       	ldd	r30, Y+4	; 0x04
    1aa6:	fd 81       	ldd	r31, Y+5	; 0x05
    1aa8:	80 83       	st	Z, r24
    1aaa:	b8 c1       	rjmp	.+880    	; 0x1e1c <DIO_enuGetPinVal+0x4b2>
			case DIO_PIN5:

				*Copy_u8Value =((PINA>>DIO_PIN5)&1);break;
    1aac:	e9 e3       	ldi	r30, 0x39	; 57
    1aae:	f0 e0       	ldi	r31, 0x00	; 0
    1ab0:	80 81       	ld	r24, Z
    1ab2:	82 95       	swap	r24
    1ab4:	86 95       	lsr	r24
    1ab6:	87 70       	andi	r24, 0x07	; 7
    1ab8:	81 70       	andi	r24, 0x01	; 1
    1aba:	ec 81       	ldd	r30, Y+4	; 0x04
    1abc:	fd 81       	ldd	r31, Y+5	; 0x05
    1abe:	80 83       	st	Z, r24
    1ac0:	ad c1       	rjmp	.+858    	; 0x1e1c <DIO_enuGetPinVal+0x4b2>
			case DIO_PIN6:

				*Copy_u8Value =((PINA>>DIO_PIN6)&1);break;
    1ac2:	e9 e3       	ldi	r30, 0x39	; 57
    1ac4:	f0 e0       	ldi	r31, 0x00	; 0
    1ac6:	80 81       	ld	r24, Z
    1ac8:	82 95       	swap	r24
    1aca:	86 95       	lsr	r24
    1acc:	86 95       	lsr	r24
    1ace:	83 70       	andi	r24, 0x03	; 3
    1ad0:	81 70       	andi	r24, 0x01	; 1
    1ad2:	ec 81       	ldd	r30, Y+4	; 0x04
    1ad4:	fd 81       	ldd	r31, Y+5	; 0x05
    1ad6:	80 83       	st	Z, r24
    1ad8:	a1 c1       	rjmp	.+834    	; 0x1e1c <DIO_enuGetPinVal+0x4b2>
			case DIO_PIN7:

				*Copy_u8Value =((PINA>>DIO_PIN7)&1);break;
    1ada:	e9 e3       	ldi	r30, 0x39	; 57
    1adc:	f0 e0       	ldi	r31, 0x00	; 0
    1ade:	80 81       	ld	r24, Z
    1ae0:	88 1f       	adc	r24, r24
    1ae2:	88 27       	eor	r24, r24
    1ae4:	88 1f       	adc	r24, r24
    1ae6:	ec 81       	ldd	r30, Y+4	; 0x04
    1ae8:	fd 81       	ldd	r31, Y+5	; 0x05
    1aea:	80 83       	st	Z, r24
    1aec:	97 c1       	rjmp	.+814    	; 0x1e1c <DIO_enuGetPinVal+0x4b2>

			}
			break;
			case DIO_PORTB://SelectFromPortB
				switch(Copy_u8PinId)
    1aee:	8b 81       	ldd	r24, Y+3	; 0x03
    1af0:	28 2f       	mov	r18, r24
    1af2:	30 e0       	ldi	r19, 0x00	; 0
    1af4:	3b 87       	std	Y+11, r19	; 0x0b
    1af6:	2a 87       	std	Y+10, r18	; 0x0a
    1af8:	8a 85       	ldd	r24, Y+10	; 0x0a
    1afa:	9b 85       	ldd	r25, Y+11	; 0x0b
    1afc:	83 30       	cpi	r24, 0x03	; 3
    1afe:	91 05       	cpc	r25, r1
    1b00:	09 f4       	brne	.+2      	; 0x1b04 <DIO_enuGetPinVal+0x19a>
    1b02:	47 c0       	rjmp	.+142    	; 0x1b92 <DIO_enuGetPinVal+0x228>
    1b04:	2a 85       	ldd	r18, Y+10	; 0x0a
    1b06:	3b 85       	ldd	r19, Y+11	; 0x0b
    1b08:	24 30       	cpi	r18, 0x04	; 4
    1b0a:	31 05       	cpc	r19, r1
    1b0c:	7c f4       	brge	.+30     	; 0x1b2c <DIO_enuGetPinVal+0x1c2>
    1b0e:	8a 85       	ldd	r24, Y+10	; 0x0a
    1b10:	9b 85       	ldd	r25, Y+11	; 0x0b
    1b12:	81 30       	cpi	r24, 0x01	; 1
    1b14:	91 05       	cpc	r25, r1
    1b16:	51 f1       	breq	.+84     	; 0x1b6c <DIO_enuGetPinVal+0x202>
    1b18:	2a 85       	ldd	r18, Y+10	; 0x0a
    1b1a:	3b 85       	ldd	r19, Y+11	; 0x0b
    1b1c:	22 30       	cpi	r18, 0x02	; 2
    1b1e:	31 05       	cpc	r19, r1
    1b20:	74 f5       	brge	.+92     	; 0x1b7e <DIO_enuGetPinVal+0x214>
    1b22:	8a 85       	ldd	r24, Y+10	; 0x0a
    1b24:	9b 85       	ldd	r25, Y+11	; 0x0b
    1b26:	00 97       	sbiw	r24, 0x00	; 0
    1b28:	c9 f0       	breq	.+50     	; 0x1b5c <DIO_enuGetPinVal+0x1f2>
    1b2a:	78 c1       	rjmp	.+752    	; 0x1e1c <DIO_enuGetPinVal+0x4b2>
    1b2c:	2a 85       	ldd	r18, Y+10	; 0x0a
    1b2e:	3b 85       	ldd	r19, Y+11	; 0x0b
    1b30:	25 30       	cpi	r18, 0x05	; 5
    1b32:	31 05       	cpc	r19, r1
    1b34:	09 f4       	brne	.+2      	; 0x1b38 <DIO_enuGetPinVal+0x1ce>
    1b36:	42 c0       	rjmp	.+132    	; 0x1bbc <DIO_enuGetPinVal+0x252>
    1b38:	8a 85       	ldd	r24, Y+10	; 0x0a
    1b3a:	9b 85       	ldd	r25, Y+11	; 0x0b
    1b3c:	85 30       	cpi	r24, 0x05	; 5
    1b3e:	91 05       	cpc	r25, r1
    1b40:	9c f1       	brlt	.+102    	; 0x1ba8 <DIO_enuGetPinVal+0x23e>
    1b42:	2a 85       	ldd	r18, Y+10	; 0x0a
    1b44:	3b 85       	ldd	r19, Y+11	; 0x0b
    1b46:	26 30       	cpi	r18, 0x06	; 6
    1b48:	31 05       	cpc	r19, r1
    1b4a:	09 f4       	brne	.+2      	; 0x1b4e <DIO_enuGetPinVal+0x1e4>
    1b4c:	42 c0       	rjmp	.+132    	; 0x1bd2 <DIO_enuGetPinVal+0x268>
    1b4e:	8a 85       	ldd	r24, Y+10	; 0x0a
    1b50:	9b 85       	ldd	r25, Y+11	; 0x0b
    1b52:	87 30       	cpi	r24, 0x07	; 7
    1b54:	91 05       	cpc	r25, r1
    1b56:	09 f4       	brne	.+2      	; 0x1b5a <DIO_enuGetPinVal+0x1f0>
    1b58:	48 c0       	rjmp	.+144    	; 0x1bea <DIO_enuGetPinVal+0x280>
    1b5a:	60 c1       	rjmp	.+704    	; 0x1e1c <DIO_enuGetPinVal+0x4b2>
				{
				case DIO_PIN0:

					*Copy_u8Value =((PINB>>DIO_PIN0)&1);break;
    1b5c:	e6 e3       	ldi	r30, 0x36	; 54
    1b5e:	f0 e0       	ldi	r31, 0x00	; 0
    1b60:	80 81       	ld	r24, Z
    1b62:	81 70       	andi	r24, 0x01	; 1
    1b64:	ec 81       	ldd	r30, Y+4	; 0x04
    1b66:	fd 81       	ldd	r31, Y+5	; 0x05
    1b68:	80 83       	st	Z, r24
    1b6a:	58 c1       	rjmp	.+688    	; 0x1e1c <DIO_enuGetPinVal+0x4b2>
				case DIO_PIN1:

					*Copy_u8Value =((PINB>>DIO_PIN1)&1);break;
    1b6c:	e6 e3       	ldi	r30, 0x36	; 54
    1b6e:	f0 e0       	ldi	r31, 0x00	; 0
    1b70:	80 81       	ld	r24, Z
    1b72:	86 95       	lsr	r24
    1b74:	81 70       	andi	r24, 0x01	; 1
    1b76:	ec 81       	ldd	r30, Y+4	; 0x04
    1b78:	fd 81       	ldd	r31, Y+5	; 0x05
    1b7a:	80 83       	st	Z, r24
    1b7c:	4f c1       	rjmp	.+670    	; 0x1e1c <DIO_enuGetPinVal+0x4b2>
				case DIO_PIN2:

					*Copy_u8Value =((PINB>>DIO_PIN2)&1);break;
    1b7e:	e6 e3       	ldi	r30, 0x36	; 54
    1b80:	f0 e0       	ldi	r31, 0x00	; 0
    1b82:	80 81       	ld	r24, Z
    1b84:	86 95       	lsr	r24
    1b86:	86 95       	lsr	r24
    1b88:	81 70       	andi	r24, 0x01	; 1
    1b8a:	ec 81       	ldd	r30, Y+4	; 0x04
    1b8c:	fd 81       	ldd	r31, Y+5	; 0x05
    1b8e:	80 83       	st	Z, r24
    1b90:	45 c1       	rjmp	.+650    	; 0x1e1c <DIO_enuGetPinVal+0x4b2>
				case DIO_PIN3:

					*Copy_u8Value =((PINB>>DIO_PIN3)&1);break;
    1b92:	e6 e3       	ldi	r30, 0x36	; 54
    1b94:	f0 e0       	ldi	r31, 0x00	; 0
    1b96:	80 81       	ld	r24, Z
    1b98:	86 95       	lsr	r24
    1b9a:	86 95       	lsr	r24
    1b9c:	86 95       	lsr	r24
    1b9e:	81 70       	andi	r24, 0x01	; 1
    1ba0:	ec 81       	ldd	r30, Y+4	; 0x04
    1ba2:	fd 81       	ldd	r31, Y+5	; 0x05
    1ba4:	80 83       	st	Z, r24
    1ba6:	3a c1       	rjmp	.+628    	; 0x1e1c <DIO_enuGetPinVal+0x4b2>
				case DIO_PIN4:

					*Copy_u8Value =((PINB>>DIO_PIN4)&1);break;
    1ba8:	e6 e3       	ldi	r30, 0x36	; 54
    1baa:	f0 e0       	ldi	r31, 0x00	; 0
    1bac:	80 81       	ld	r24, Z
    1bae:	82 95       	swap	r24
    1bb0:	8f 70       	andi	r24, 0x0F	; 15
    1bb2:	81 70       	andi	r24, 0x01	; 1
    1bb4:	ec 81       	ldd	r30, Y+4	; 0x04
    1bb6:	fd 81       	ldd	r31, Y+5	; 0x05
    1bb8:	80 83       	st	Z, r24
    1bba:	30 c1       	rjmp	.+608    	; 0x1e1c <DIO_enuGetPinVal+0x4b2>
				case DIO_PIN5:

					*Copy_u8Value =((PINB>>DIO_PIN5)&1);break;
    1bbc:	e6 e3       	ldi	r30, 0x36	; 54
    1bbe:	f0 e0       	ldi	r31, 0x00	; 0
    1bc0:	80 81       	ld	r24, Z
    1bc2:	82 95       	swap	r24
    1bc4:	86 95       	lsr	r24
    1bc6:	87 70       	andi	r24, 0x07	; 7
    1bc8:	81 70       	andi	r24, 0x01	; 1
    1bca:	ec 81       	ldd	r30, Y+4	; 0x04
    1bcc:	fd 81       	ldd	r31, Y+5	; 0x05
    1bce:	80 83       	st	Z, r24
    1bd0:	25 c1       	rjmp	.+586    	; 0x1e1c <DIO_enuGetPinVal+0x4b2>
				case DIO_PIN6:

					*Copy_u8Value =((PINB>>DIO_PIN6)&1);break;
    1bd2:	e6 e3       	ldi	r30, 0x36	; 54
    1bd4:	f0 e0       	ldi	r31, 0x00	; 0
    1bd6:	80 81       	ld	r24, Z
    1bd8:	82 95       	swap	r24
    1bda:	86 95       	lsr	r24
    1bdc:	86 95       	lsr	r24
    1bde:	83 70       	andi	r24, 0x03	; 3
    1be0:	81 70       	andi	r24, 0x01	; 1
    1be2:	ec 81       	ldd	r30, Y+4	; 0x04
    1be4:	fd 81       	ldd	r31, Y+5	; 0x05
    1be6:	80 83       	st	Z, r24
    1be8:	19 c1       	rjmp	.+562    	; 0x1e1c <DIO_enuGetPinVal+0x4b2>
				case DIO_PIN7:

					*Copy_u8Value =((PINB>>DIO_PIN7)&1);break;
    1bea:	e6 e3       	ldi	r30, 0x36	; 54
    1bec:	f0 e0       	ldi	r31, 0x00	; 0
    1bee:	80 81       	ld	r24, Z
    1bf0:	88 1f       	adc	r24, r24
    1bf2:	88 27       	eor	r24, r24
    1bf4:	88 1f       	adc	r24, r24
    1bf6:	ec 81       	ldd	r30, Y+4	; 0x04
    1bf8:	fd 81       	ldd	r31, Y+5	; 0x05
    1bfa:	80 83       	st	Z, r24
    1bfc:	0f c1       	rjmp	.+542    	; 0x1e1c <DIO_enuGetPinVal+0x4b2>
				}
				break;
				case DIO_PORTC://SelectFromPortC
					switch(Copy_u8PinId)
    1bfe:	8b 81       	ldd	r24, Y+3	; 0x03
    1c00:	28 2f       	mov	r18, r24
    1c02:	30 e0       	ldi	r19, 0x00	; 0
    1c04:	39 87       	std	Y+9, r19	; 0x09
    1c06:	28 87       	std	Y+8, r18	; 0x08
    1c08:	88 85       	ldd	r24, Y+8	; 0x08
    1c0a:	99 85       	ldd	r25, Y+9	; 0x09
    1c0c:	83 30       	cpi	r24, 0x03	; 3
    1c0e:	91 05       	cpc	r25, r1
    1c10:	09 f4       	brne	.+2      	; 0x1c14 <DIO_enuGetPinVal+0x2aa>
    1c12:	47 c0       	rjmp	.+142    	; 0x1ca2 <DIO_enuGetPinVal+0x338>
    1c14:	28 85       	ldd	r18, Y+8	; 0x08
    1c16:	39 85       	ldd	r19, Y+9	; 0x09
    1c18:	24 30       	cpi	r18, 0x04	; 4
    1c1a:	31 05       	cpc	r19, r1
    1c1c:	7c f4       	brge	.+30     	; 0x1c3c <DIO_enuGetPinVal+0x2d2>
    1c1e:	88 85       	ldd	r24, Y+8	; 0x08
    1c20:	99 85       	ldd	r25, Y+9	; 0x09
    1c22:	81 30       	cpi	r24, 0x01	; 1
    1c24:	91 05       	cpc	r25, r1
    1c26:	51 f1       	breq	.+84     	; 0x1c7c <DIO_enuGetPinVal+0x312>
    1c28:	28 85       	ldd	r18, Y+8	; 0x08
    1c2a:	39 85       	ldd	r19, Y+9	; 0x09
    1c2c:	22 30       	cpi	r18, 0x02	; 2
    1c2e:	31 05       	cpc	r19, r1
    1c30:	74 f5       	brge	.+92     	; 0x1c8e <DIO_enuGetPinVal+0x324>
    1c32:	88 85       	ldd	r24, Y+8	; 0x08
    1c34:	99 85       	ldd	r25, Y+9	; 0x09
    1c36:	00 97       	sbiw	r24, 0x00	; 0
    1c38:	c9 f0       	breq	.+50     	; 0x1c6c <DIO_enuGetPinVal+0x302>
    1c3a:	f0 c0       	rjmp	.+480    	; 0x1e1c <DIO_enuGetPinVal+0x4b2>
    1c3c:	28 85       	ldd	r18, Y+8	; 0x08
    1c3e:	39 85       	ldd	r19, Y+9	; 0x09
    1c40:	25 30       	cpi	r18, 0x05	; 5
    1c42:	31 05       	cpc	r19, r1
    1c44:	09 f4       	brne	.+2      	; 0x1c48 <DIO_enuGetPinVal+0x2de>
    1c46:	42 c0       	rjmp	.+132    	; 0x1ccc <DIO_enuGetPinVal+0x362>
    1c48:	88 85       	ldd	r24, Y+8	; 0x08
    1c4a:	99 85       	ldd	r25, Y+9	; 0x09
    1c4c:	85 30       	cpi	r24, 0x05	; 5
    1c4e:	91 05       	cpc	r25, r1
    1c50:	9c f1       	brlt	.+102    	; 0x1cb8 <DIO_enuGetPinVal+0x34e>
    1c52:	28 85       	ldd	r18, Y+8	; 0x08
    1c54:	39 85       	ldd	r19, Y+9	; 0x09
    1c56:	26 30       	cpi	r18, 0x06	; 6
    1c58:	31 05       	cpc	r19, r1
    1c5a:	09 f4       	brne	.+2      	; 0x1c5e <DIO_enuGetPinVal+0x2f4>
    1c5c:	42 c0       	rjmp	.+132    	; 0x1ce2 <DIO_enuGetPinVal+0x378>
    1c5e:	88 85       	ldd	r24, Y+8	; 0x08
    1c60:	99 85       	ldd	r25, Y+9	; 0x09
    1c62:	87 30       	cpi	r24, 0x07	; 7
    1c64:	91 05       	cpc	r25, r1
    1c66:	09 f4       	brne	.+2      	; 0x1c6a <DIO_enuGetPinVal+0x300>
    1c68:	48 c0       	rjmp	.+144    	; 0x1cfa <DIO_enuGetPinVal+0x390>
    1c6a:	d8 c0       	rjmp	.+432    	; 0x1e1c <DIO_enuGetPinVal+0x4b2>
					{
					case DIO_PIN0:

						*Copy_u8Value =((PINC>>DIO_PIN0)&1);break;
    1c6c:	e3 e3       	ldi	r30, 0x33	; 51
    1c6e:	f0 e0       	ldi	r31, 0x00	; 0
    1c70:	80 81       	ld	r24, Z
    1c72:	81 70       	andi	r24, 0x01	; 1
    1c74:	ec 81       	ldd	r30, Y+4	; 0x04
    1c76:	fd 81       	ldd	r31, Y+5	; 0x05
    1c78:	80 83       	st	Z, r24
    1c7a:	d0 c0       	rjmp	.+416    	; 0x1e1c <DIO_enuGetPinVal+0x4b2>
					case DIO_PIN1:

						*Copy_u8Value =((PINC>>DIO_PIN1)&1);break;
    1c7c:	e3 e3       	ldi	r30, 0x33	; 51
    1c7e:	f0 e0       	ldi	r31, 0x00	; 0
    1c80:	80 81       	ld	r24, Z
    1c82:	86 95       	lsr	r24
    1c84:	81 70       	andi	r24, 0x01	; 1
    1c86:	ec 81       	ldd	r30, Y+4	; 0x04
    1c88:	fd 81       	ldd	r31, Y+5	; 0x05
    1c8a:	80 83       	st	Z, r24
    1c8c:	c7 c0       	rjmp	.+398    	; 0x1e1c <DIO_enuGetPinVal+0x4b2>
					case DIO_PIN2:

						*Copy_u8Value =((PINC>>DIO_PIN2)&1);break;
    1c8e:	e3 e3       	ldi	r30, 0x33	; 51
    1c90:	f0 e0       	ldi	r31, 0x00	; 0
    1c92:	80 81       	ld	r24, Z
    1c94:	86 95       	lsr	r24
    1c96:	86 95       	lsr	r24
    1c98:	81 70       	andi	r24, 0x01	; 1
    1c9a:	ec 81       	ldd	r30, Y+4	; 0x04
    1c9c:	fd 81       	ldd	r31, Y+5	; 0x05
    1c9e:	80 83       	st	Z, r24
    1ca0:	bd c0       	rjmp	.+378    	; 0x1e1c <DIO_enuGetPinVal+0x4b2>
					case DIO_PIN3:

						*Copy_u8Value =((PINC>>DIO_PIN3)&1);break;
    1ca2:	e3 e3       	ldi	r30, 0x33	; 51
    1ca4:	f0 e0       	ldi	r31, 0x00	; 0
    1ca6:	80 81       	ld	r24, Z
    1ca8:	86 95       	lsr	r24
    1caa:	86 95       	lsr	r24
    1cac:	86 95       	lsr	r24
    1cae:	81 70       	andi	r24, 0x01	; 1
    1cb0:	ec 81       	ldd	r30, Y+4	; 0x04
    1cb2:	fd 81       	ldd	r31, Y+5	; 0x05
    1cb4:	80 83       	st	Z, r24
    1cb6:	b2 c0       	rjmp	.+356    	; 0x1e1c <DIO_enuGetPinVal+0x4b2>
					case DIO_PIN4:

						*Copy_u8Value =((PINC>>DIO_PIN4)&1);break;
    1cb8:	e3 e3       	ldi	r30, 0x33	; 51
    1cba:	f0 e0       	ldi	r31, 0x00	; 0
    1cbc:	80 81       	ld	r24, Z
    1cbe:	82 95       	swap	r24
    1cc0:	8f 70       	andi	r24, 0x0F	; 15
    1cc2:	81 70       	andi	r24, 0x01	; 1
    1cc4:	ec 81       	ldd	r30, Y+4	; 0x04
    1cc6:	fd 81       	ldd	r31, Y+5	; 0x05
    1cc8:	80 83       	st	Z, r24
    1cca:	a8 c0       	rjmp	.+336    	; 0x1e1c <DIO_enuGetPinVal+0x4b2>
					case DIO_PIN5:

						*Copy_u8Value =((PINC>>DIO_PIN5)&1);break;
    1ccc:	e3 e3       	ldi	r30, 0x33	; 51
    1cce:	f0 e0       	ldi	r31, 0x00	; 0
    1cd0:	80 81       	ld	r24, Z
    1cd2:	82 95       	swap	r24
    1cd4:	86 95       	lsr	r24
    1cd6:	87 70       	andi	r24, 0x07	; 7
    1cd8:	81 70       	andi	r24, 0x01	; 1
    1cda:	ec 81       	ldd	r30, Y+4	; 0x04
    1cdc:	fd 81       	ldd	r31, Y+5	; 0x05
    1cde:	80 83       	st	Z, r24
    1ce0:	9d c0       	rjmp	.+314    	; 0x1e1c <DIO_enuGetPinVal+0x4b2>
					case DIO_PIN6:

						*Copy_u8Value =((PINC>>DIO_PIN6)&1);break;
    1ce2:	e3 e3       	ldi	r30, 0x33	; 51
    1ce4:	f0 e0       	ldi	r31, 0x00	; 0
    1ce6:	80 81       	ld	r24, Z
    1ce8:	82 95       	swap	r24
    1cea:	86 95       	lsr	r24
    1cec:	86 95       	lsr	r24
    1cee:	83 70       	andi	r24, 0x03	; 3
    1cf0:	81 70       	andi	r24, 0x01	; 1
    1cf2:	ec 81       	ldd	r30, Y+4	; 0x04
    1cf4:	fd 81       	ldd	r31, Y+5	; 0x05
    1cf6:	80 83       	st	Z, r24
    1cf8:	91 c0       	rjmp	.+290    	; 0x1e1c <DIO_enuGetPinVal+0x4b2>
					case DIO_PIN7:

						*Copy_u8Value =((PINC>>DIO_PIN7)&1);break;
    1cfa:	e3 e3       	ldi	r30, 0x33	; 51
    1cfc:	f0 e0       	ldi	r31, 0x00	; 0
    1cfe:	80 81       	ld	r24, Z
    1d00:	88 1f       	adc	r24, r24
    1d02:	88 27       	eor	r24, r24
    1d04:	88 1f       	adc	r24, r24
    1d06:	ec 81       	ldd	r30, Y+4	; 0x04
    1d08:	fd 81       	ldd	r31, Y+5	; 0x05
    1d0a:	80 83       	st	Z, r24
    1d0c:	87 c0       	rjmp	.+270    	; 0x1e1c <DIO_enuGetPinVal+0x4b2>
					}
					break;
					case DIO_PORTD://SelePINDomPortD
						switch(Copy_u8PinId)
    1d0e:	8b 81       	ldd	r24, Y+3	; 0x03
    1d10:	28 2f       	mov	r18, r24
    1d12:	30 e0       	ldi	r19, 0x00	; 0
    1d14:	3f 83       	std	Y+7, r19	; 0x07
    1d16:	2e 83       	std	Y+6, r18	; 0x06
    1d18:	8e 81       	ldd	r24, Y+6	; 0x06
    1d1a:	9f 81       	ldd	r25, Y+7	; 0x07
    1d1c:	83 30       	cpi	r24, 0x03	; 3
    1d1e:	91 05       	cpc	r25, r1
    1d20:	09 f4       	brne	.+2      	; 0x1d24 <DIO_enuGetPinVal+0x3ba>
    1d22:	47 c0       	rjmp	.+142    	; 0x1db2 <DIO_enuGetPinVal+0x448>
    1d24:	2e 81       	ldd	r18, Y+6	; 0x06
    1d26:	3f 81       	ldd	r19, Y+7	; 0x07
    1d28:	24 30       	cpi	r18, 0x04	; 4
    1d2a:	31 05       	cpc	r19, r1
    1d2c:	7c f4       	brge	.+30     	; 0x1d4c <DIO_enuGetPinVal+0x3e2>
    1d2e:	8e 81       	ldd	r24, Y+6	; 0x06
    1d30:	9f 81       	ldd	r25, Y+7	; 0x07
    1d32:	81 30       	cpi	r24, 0x01	; 1
    1d34:	91 05       	cpc	r25, r1
    1d36:	51 f1       	breq	.+84     	; 0x1d8c <DIO_enuGetPinVal+0x422>
    1d38:	2e 81       	ldd	r18, Y+6	; 0x06
    1d3a:	3f 81       	ldd	r19, Y+7	; 0x07
    1d3c:	22 30       	cpi	r18, 0x02	; 2
    1d3e:	31 05       	cpc	r19, r1
    1d40:	74 f5       	brge	.+92     	; 0x1d9e <DIO_enuGetPinVal+0x434>
    1d42:	8e 81       	ldd	r24, Y+6	; 0x06
    1d44:	9f 81       	ldd	r25, Y+7	; 0x07
    1d46:	00 97       	sbiw	r24, 0x00	; 0
    1d48:	c9 f0       	breq	.+50     	; 0x1d7c <DIO_enuGetPinVal+0x412>
    1d4a:	68 c0       	rjmp	.+208    	; 0x1e1c <DIO_enuGetPinVal+0x4b2>
    1d4c:	2e 81       	ldd	r18, Y+6	; 0x06
    1d4e:	3f 81       	ldd	r19, Y+7	; 0x07
    1d50:	25 30       	cpi	r18, 0x05	; 5
    1d52:	31 05       	cpc	r19, r1
    1d54:	09 f4       	brne	.+2      	; 0x1d58 <DIO_enuGetPinVal+0x3ee>
    1d56:	42 c0       	rjmp	.+132    	; 0x1ddc <DIO_enuGetPinVal+0x472>
    1d58:	8e 81       	ldd	r24, Y+6	; 0x06
    1d5a:	9f 81       	ldd	r25, Y+7	; 0x07
    1d5c:	85 30       	cpi	r24, 0x05	; 5
    1d5e:	91 05       	cpc	r25, r1
    1d60:	9c f1       	brlt	.+102    	; 0x1dc8 <DIO_enuGetPinVal+0x45e>
    1d62:	2e 81       	ldd	r18, Y+6	; 0x06
    1d64:	3f 81       	ldd	r19, Y+7	; 0x07
    1d66:	26 30       	cpi	r18, 0x06	; 6
    1d68:	31 05       	cpc	r19, r1
    1d6a:	09 f4       	brne	.+2      	; 0x1d6e <DIO_enuGetPinVal+0x404>
    1d6c:	42 c0       	rjmp	.+132    	; 0x1df2 <DIO_enuGetPinVal+0x488>
    1d6e:	8e 81       	ldd	r24, Y+6	; 0x06
    1d70:	9f 81       	ldd	r25, Y+7	; 0x07
    1d72:	87 30       	cpi	r24, 0x07	; 7
    1d74:	91 05       	cpc	r25, r1
    1d76:	09 f4       	brne	.+2      	; 0x1d7a <DIO_enuGetPinVal+0x410>
    1d78:	48 c0       	rjmp	.+144    	; 0x1e0a <DIO_enuGetPinVal+0x4a0>
    1d7a:	50 c0       	rjmp	.+160    	; 0x1e1c <DIO_enuGetPinVal+0x4b2>
						{
						case DIO_PIN0:

							*Copy_u8Value =((PIND>>DIO_PIN0)&1);break;
    1d7c:	e0 e3       	ldi	r30, 0x30	; 48
    1d7e:	f0 e0       	ldi	r31, 0x00	; 0
    1d80:	80 81       	ld	r24, Z
    1d82:	81 70       	andi	r24, 0x01	; 1
    1d84:	ec 81       	ldd	r30, Y+4	; 0x04
    1d86:	fd 81       	ldd	r31, Y+5	; 0x05
    1d88:	80 83       	st	Z, r24
    1d8a:	48 c0       	rjmp	.+144    	; 0x1e1c <DIO_enuGetPinVal+0x4b2>
						case DIO_PIN1:

							*Copy_u8Value =((PIND>>DIO_PIN1)&1);break;
    1d8c:	e0 e3       	ldi	r30, 0x30	; 48
    1d8e:	f0 e0       	ldi	r31, 0x00	; 0
    1d90:	80 81       	ld	r24, Z
    1d92:	86 95       	lsr	r24
    1d94:	81 70       	andi	r24, 0x01	; 1
    1d96:	ec 81       	ldd	r30, Y+4	; 0x04
    1d98:	fd 81       	ldd	r31, Y+5	; 0x05
    1d9a:	80 83       	st	Z, r24
    1d9c:	3f c0       	rjmp	.+126    	; 0x1e1c <DIO_enuGetPinVal+0x4b2>
						case DIO_PIN2:

							*Copy_u8Value =((PIND>>DIO_PIN2)&1);break;
    1d9e:	e0 e3       	ldi	r30, 0x30	; 48
    1da0:	f0 e0       	ldi	r31, 0x00	; 0
    1da2:	80 81       	ld	r24, Z
    1da4:	86 95       	lsr	r24
    1da6:	86 95       	lsr	r24
    1da8:	81 70       	andi	r24, 0x01	; 1
    1daa:	ec 81       	ldd	r30, Y+4	; 0x04
    1dac:	fd 81       	ldd	r31, Y+5	; 0x05
    1dae:	80 83       	st	Z, r24
    1db0:	35 c0       	rjmp	.+106    	; 0x1e1c <DIO_enuGetPinVal+0x4b2>
						case DIO_PIN3:

							*Copy_u8Value =((PIND>>DIO_PIN3)&1);break;
    1db2:	e0 e3       	ldi	r30, 0x30	; 48
    1db4:	f0 e0       	ldi	r31, 0x00	; 0
    1db6:	80 81       	ld	r24, Z
    1db8:	86 95       	lsr	r24
    1dba:	86 95       	lsr	r24
    1dbc:	86 95       	lsr	r24
    1dbe:	81 70       	andi	r24, 0x01	; 1
    1dc0:	ec 81       	ldd	r30, Y+4	; 0x04
    1dc2:	fd 81       	ldd	r31, Y+5	; 0x05
    1dc4:	80 83       	st	Z, r24
    1dc6:	2a c0       	rjmp	.+84     	; 0x1e1c <DIO_enuGetPinVal+0x4b2>
						case DIO_PIN4:

							*Copy_u8Value =((PIND>>DIO_PIN4)&1);break;
    1dc8:	e0 e3       	ldi	r30, 0x30	; 48
    1dca:	f0 e0       	ldi	r31, 0x00	; 0
    1dcc:	80 81       	ld	r24, Z
    1dce:	82 95       	swap	r24
    1dd0:	8f 70       	andi	r24, 0x0F	; 15
    1dd2:	81 70       	andi	r24, 0x01	; 1
    1dd4:	ec 81       	ldd	r30, Y+4	; 0x04
    1dd6:	fd 81       	ldd	r31, Y+5	; 0x05
    1dd8:	80 83       	st	Z, r24
    1dda:	20 c0       	rjmp	.+64     	; 0x1e1c <DIO_enuGetPinVal+0x4b2>
						case DIO_PIN5:

							*Copy_u8Value =((PIND>>DIO_PIN5)&1);break;
    1ddc:	e0 e3       	ldi	r30, 0x30	; 48
    1dde:	f0 e0       	ldi	r31, 0x00	; 0
    1de0:	80 81       	ld	r24, Z
    1de2:	82 95       	swap	r24
    1de4:	86 95       	lsr	r24
    1de6:	87 70       	andi	r24, 0x07	; 7
    1de8:	81 70       	andi	r24, 0x01	; 1
    1dea:	ec 81       	ldd	r30, Y+4	; 0x04
    1dec:	fd 81       	ldd	r31, Y+5	; 0x05
    1dee:	80 83       	st	Z, r24
    1df0:	15 c0       	rjmp	.+42     	; 0x1e1c <DIO_enuGetPinVal+0x4b2>
						case DIO_PIN6:

							*Copy_u8Value =((PIND>>DIO_PIN6)&1);break;
    1df2:	e0 e3       	ldi	r30, 0x30	; 48
    1df4:	f0 e0       	ldi	r31, 0x00	; 0
    1df6:	80 81       	ld	r24, Z
    1df8:	82 95       	swap	r24
    1dfa:	86 95       	lsr	r24
    1dfc:	86 95       	lsr	r24
    1dfe:	83 70       	andi	r24, 0x03	; 3
    1e00:	81 70       	andi	r24, 0x01	; 1
    1e02:	ec 81       	ldd	r30, Y+4	; 0x04
    1e04:	fd 81       	ldd	r31, Y+5	; 0x05
    1e06:	80 83       	st	Z, r24
    1e08:	09 c0       	rjmp	.+18     	; 0x1e1c <DIO_enuGetPinVal+0x4b2>
						case DIO_PIN7:

							*Copy_u8Value =((PIND>>DIO_PIN7)&1);break;
    1e0a:	e0 e3       	ldi	r30, 0x30	; 48
    1e0c:	f0 e0       	ldi	r31, 0x00	; 0
    1e0e:	80 81       	ld	r24, Z
    1e10:	88 1f       	adc	r24, r24
    1e12:	88 27       	eor	r24, r24
    1e14:	88 1f       	adc	r24, r24
    1e16:	ec 81       	ldd	r30, Y+4	; 0x04
    1e18:	fd 81       	ldd	r31, Y+5	; 0x05
    1e1a:	80 83       	st	Z, r24
						}
						break;

		}
		Local_enuErrorState = ES_OK;
    1e1c:	19 82       	std	Y+1, r1	; 0x01
    1e1e:	02 c0       	rjmp	.+4      	; 0x1e24 <DIO_enuGetPinVal+0x4ba>
	}
	else
	{
		Local_enuErrorState = ES_Out_Of_Range;
    1e20:	83 e0       	ldi	r24, 0x03	; 3
    1e22:	89 83       	std	Y+1, r24	; 0x01
	}



	return Local_enuErrorState;
    1e24:	89 81       	ldd	r24, Y+1	; 0x01
}
    1e26:	2f 96       	adiw	r28, 0x0f	; 15
    1e28:	0f b6       	in	r0, 0x3f	; 63
    1e2a:	f8 94       	cli
    1e2c:	de bf       	out	0x3e, r29	; 62
    1e2e:	0f be       	out	0x3f, r0	; 63
    1e30:	cd bf       	out	0x3d, r28	; 61
    1e32:	cf 91       	pop	r28
    1e34:	df 91       	pop	r29
    1e36:	08 95       	ret

00001e38 <DIO_enuSetPortDir>:

ES_t DIO_enuSetPortDir(u8 Copy_u8PortId,u8 Copy_u8Direction)
{
    1e38:	df 93       	push	r29
    1e3a:	cf 93       	push	r28
    1e3c:	00 d0       	rcall	.+0      	; 0x1e3e <DIO_enuSetPortDir+0x6>
    1e3e:	00 d0       	rcall	.+0      	; 0x1e40 <DIO_enuSetPortDir+0x8>
    1e40:	0f 92       	push	r0
    1e42:	cd b7       	in	r28, 0x3d	; 61
    1e44:	de b7       	in	r29, 0x3e	; 62
    1e46:	8a 83       	std	Y+2, r24	; 0x02
    1e48:	6b 83       	std	Y+3, r22	; 0x03
	ES_t Local_enuErrorState = ES_NOK;
    1e4a:	81 e0       	ldi	r24, 0x01	; 1
    1e4c:	89 83       	std	Y+1, r24	; 0x01

	if(Copy_u8PortId<= DIO_PORTD)
    1e4e:	8a 81       	ldd	r24, Y+2	; 0x02
    1e50:	84 30       	cpi	r24, 0x04	; 4
    1e52:	a0 f5       	brcc	.+104    	; 0x1ebc <DIO_enuSetPortDir+0x84>
	{
		switch(Copy_u8PortId)
    1e54:	8a 81       	ldd	r24, Y+2	; 0x02
    1e56:	28 2f       	mov	r18, r24
    1e58:	30 e0       	ldi	r19, 0x00	; 0
    1e5a:	3d 83       	std	Y+5, r19	; 0x05
    1e5c:	2c 83       	std	Y+4, r18	; 0x04
    1e5e:	8c 81       	ldd	r24, Y+4	; 0x04
    1e60:	9d 81       	ldd	r25, Y+5	; 0x05
    1e62:	81 30       	cpi	r24, 0x01	; 1
    1e64:	91 05       	cpc	r25, r1
    1e66:	d1 f0       	breq	.+52     	; 0x1e9c <DIO_enuSetPortDir+0x64>
    1e68:	2c 81       	ldd	r18, Y+4	; 0x04
    1e6a:	3d 81       	ldd	r19, Y+5	; 0x05
    1e6c:	22 30       	cpi	r18, 0x02	; 2
    1e6e:	31 05       	cpc	r19, r1
    1e70:	2c f4       	brge	.+10     	; 0x1e7c <DIO_enuSetPortDir+0x44>
    1e72:	8c 81       	ldd	r24, Y+4	; 0x04
    1e74:	9d 81       	ldd	r25, Y+5	; 0x05
    1e76:	00 97       	sbiw	r24, 0x00	; 0
    1e78:	61 f0       	breq	.+24     	; 0x1e92 <DIO_enuSetPortDir+0x5a>
    1e7a:	1e c0       	rjmp	.+60     	; 0x1eb8 <DIO_enuSetPortDir+0x80>
    1e7c:	2c 81       	ldd	r18, Y+4	; 0x04
    1e7e:	3d 81       	ldd	r19, Y+5	; 0x05
    1e80:	22 30       	cpi	r18, 0x02	; 2
    1e82:	31 05       	cpc	r19, r1
    1e84:	81 f0       	breq	.+32     	; 0x1ea6 <DIO_enuSetPortDir+0x6e>
    1e86:	8c 81       	ldd	r24, Y+4	; 0x04
    1e88:	9d 81       	ldd	r25, Y+5	; 0x05
    1e8a:	83 30       	cpi	r24, 0x03	; 3
    1e8c:	91 05       	cpc	r25, r1
    1e8e:	81 f0       	breq	.+32     	; 0x1eb0 <DIO_enuSetPortDir+0x78>
    1e90:	13 c0       	rjmp	.+38     	; 0x1eb8 <DIO_enuSetPortDir+0x80>
		{
		case DIO_PORTA:
			DDRA = Copy_u8Direction;
    1e92:	ea e3       	ldi	r30, 0x3A	; 58
    1e94:	f0 e0       	ldi	r31, 0x00	; 0
    1e96:	8b 81       	ldd	r24, Y+3	; 0x03
    1e98:	80 83       	st	Z, r24
    1e9a:	0e c0       	rjmp	.+28     	; 0x1eb8 <DIO_enuSetPortDir+0x80>
			break;
		case DIO_PORTB:
			DDRB = Copy_u8Direction;
    1e9c:	e7 e3       	ldi	r30, 0x37	; 55
    1e9e:	f0 e0       	ldi	r31, 0x00	; 0
    1ea0:	8b 81       	ldd	r24, Y+3	; 0x03
    1ea2:	80 83       	st	Z, r24
    1ea4:	09 c0       	rjmp	.+18     	; 0x1eb8 <DIO_enuSetPortDir+0x80>
					break;
		case DIO_PORTC:
			DDRC = Copy_u8Direction;
    1ea6:	e4 e3       	ldi	r30, 0x34	; 52
    1ea8:	f0 e0       	ldi	r31, 0x00	; 0
    1eaa:	8b 81       	ldd	r24, Y+3	; 0x03
    1eac:	80 83       	st	Z, r24
    1eae:	04 c0       	rjmp	.+8      	; 0x1eb8 <DIO_enuSetPortDir+0x80>
					break;
		case DIO_PORTD:
			DDRC = Copy_u8Direction;
    1eb0:	e4 e3       	ldi	r30, 0x34	; 52
    1eb2:	f0 e0       	ldi	r31, 0x00	; 0
    1eb4:	8b 81       	ldd	r24, Y+3	; 0x03
    1eb6:	80 83       	st	Z, r24
					break;
		}
		Local_enuErrorState = ES_OK;
    1eb8:	19 82       	std	Y+1, r1	; 0x01
    1eba:	02 c0       	rjmp	.+4      	; 0x1ec0 <DIO_enuSetPortDir+0x88>
	}
	else
	{
		Local_enuErrorState = ES_Out_Of_Range;
    1ebc:	83 e0       	ldi	r24, 0x03	; 3
    1ebe:	89 83       	std	Y+1, r24	; 0x01
	}

	return Local_enuErrorState;
    1ec0:	89 81       	ldd	r24, Y+1	; 0x01
}
    1ec2:	0f 90       	pop	r0
    1ec4:	0f 90       	pop	r0
    1ec6:	0f 90       	pop	r0
    1ec8:	0f 90       	pop	r0
    1eca:	0f 90       	pop	r0
    1ecc:	cf 91       	pop	r28
    1ece:	df 91       	pop	r29
    1ed0:	08 95       	ret

00001ed2 <DIO_enuSetPortVal>:
ES_t DIO_enuSetPortVal(u8 Copy_u8PortId,u8 Copy_u8Value)
{
    1ed2:	df 93       	push	r29
    1ed4:	cf 93       	push	r28
    1ed6:	00 d0       	rcall	.+0      	; 0x1ed8 <DIO_enuSetPortVal+0x6>
    1ed8:	00 d0       	rcall	.+0      	; 0x1eda <DIO_enuSetPortVal+0x8>
    1eda:	0f 92       	push	r0
    1edc:	cd b7       	in	r28, 0x3d	; 61
    1ede:	de b7       	in	r29, 0x3e	; 62
    1ee0:	8a 83       	std	Y+2, r24	; 0x02
    1ee2:	6b 83       	std	Y+3, r22	; 0x03
	ES_t Local_enuErrorState = ES_NOK;
    1ee4:	81 e0       	ldi	r24, 0x01	; 1
    1ee6:	89 83       	std	Y+1, r24	; 0x01
	if(Copy_u8PortId<= DIO_PORTD)
    1ee8:	8a 81       	ldd	r24, Y+2	; 0x02
    1eea:	84 30       	cpi	r24, 0x04	; 4
    1eec:	a0 f5       	brcc	.+104    	; 0x1f56 <DIO_enuSetPortVal+0x84>
	{
		switch(Copy_u8PortId)
    1eee:	8a 81       	ldd	r24, Y+2	; 0x02
    1ef0:	28 2f       	mov	r18, r24
    1ef2:	30 e0       	ldi	r19, 0x00	; 0
    1ef4:	3d 83       	std	Y+5, r19	; 0x05
    1ef6:	2c 83       	std	Y+4, r18	; 0x04
    1ef8:	8c 81       	ldd	r24, Y+4	; 0x04
    1efa:	9d 81       	ldd	r25, Y+5	; 0x05
    1efc:	81 30       	cpi	r24, 0x01	; 1
    1efe:	91 05       	cpc	r25, r1
    1f00:	d1 f0       	breq	.+52     	; 0x1f36 <DIO_enuSetPortVal+0x64>
    1f02:	2c 81       	ldd	r18, Y+4	; 0x04
    1f04:	3d 81       	ldd	r19, Y+5	; 0x05
    1f06:	22 30       	cpi	r18, 0x02	; 2
    1f08:	31 05       	cpc	r19, r1
    1f0a:	2c f4       	brge	.+10     	; 0x1f16 <DIO_enuSetPortVal+0x44>
    1f0c:	8c 81       	ldd	r24, Y+4	; 0x04
    1f0e:	9d 81       	ldd	r25, Y+5	; 0x05
    1f10:	00 97       	sbiw	r24, 0x00	; 0
    1f12:	61 f0       	breq	.+24     	; 0x1f2c <DIO_enuSetPortVal+0x5a>
    1f14:	1e c0       	rjmp	.+60     	; 0x1f52 <DIO_enuSetPortVal+0x80>
    1f16:	2c 81       	ldd	r18, Y+4	; 0x04
    1f18:	3d 81       	ldd	r19, Y+5	; 0x05
    1f1a:	22 30       	cpi	r18, 0x02	; 2
    1f1c:	31 05       	cpc	r19, r1
    1f1e:	81 f0       	breq	.+32     	; 0x1f40 <DIO_enuSetPortVal+0x6e>
    1f20:	8c 81       	ldd	r24, Y+4	; 0x04
    1f22:	9d 81       	ldd	r25, Y+5	; 0x05
    1f24:	83 30       	cpi	r24, 0x03	; 3
    1f26:	91 05       	cpc	r25, r1
    1f28:	81 f0       	breq	.+32     	; 0x1f4a <DIO_enuSetPortVal+0x78>
    1f2a:	13 c0       	rjmp	.+38     	; 0x1f52 <DIO_enuSetPortVal+0x80>
		{
		case DIO_PORTA:
			PORTA = Copy_u8Value;
    1f2c:	eb e3       	ldi	r30, 0x3B	; 59
    1f2e:	f0 e0       	ldi	r31, 0x00	; 0
    1f30:	8b 81       	ldd	r24, Y+3	; 0x03
    1f32:	80 83       	st	Z, r24
    1f34:	0e c0       	rjmp	.+28     	; 0x1f52 <DIO_enuSetPortVal+0x80>
			break;
		case DIO_PORTB:
			PORTB = Copy_u8Value;
    1f36:	e8 e3       	ldi	r30, 0x38	; 56
    1f38:	f0 e0       	ldi	r31, 0x00	; 0
    1f3a:	8b 81       	ldd	r24, Y+3	; 0x03
    1f3c:	80 83       	st	Z, r24
    1f3e:	09 c0       	rjmp	.+18     	; 0x1f52 <DIO_enuSetPortVal+0x80>
			break;
		case DIO_PORTC:
			PORTC = Copy_u8Value;
    1f40:	e5 e3       	ldi	r30, 0x35	; 53
    1f42:	f0 e0       	ldi	r31, 0x00	; 0
    1f44:	8b 81       	ldd	r24, Y+3	; 0x03
    1f46:	80 83       	st	Z, r24
    1f48:	04 c0       	rjmp	.+8      	; 0x1f52 <DIO_enuSetPortVal+0x80>
			break;
		case DIO_PORTD:
			PORTD = Copy_u8Value;
    1f4a:	e2 e3       	ldi	r30, 0x32	; 50
    1f4c:	f0 e0       	ldi	r31, 0x00	; 0
    1f4e:	8b 81       	ldd	r24, Y+3	; 0x03
    1f50:	80 83       	st	Z, r24
			break;
		}
		Local_enuErrorState = ES_OK;
    1f52:	19 82       	std	Y+1, r1	; 0x01
    1f54:	02 c0       	rjmp	.+4      	; 0x1f5a <DIO_enuSetPortVal+0x88>
	}
	else
	{
		Local_enuErrorState = ES_Out_Of_Range;
    1f56:	83 e0       	ldi	r24, 0x03	; 3
    1f58:	89 83       	std	Y+1, r24	; 0x01
		}



	return Local_enuErrorState;
    1f5a:	89 81       	ldd	r24, Y+1	; 0x01
}
    1f5c:	0f 90       	pop	r0
    1f5e:	0f 90       	pop	r0
    1f60:	0f 90       	pop	r0
    1f62:	0f 90       	pop	r0
    1f64:	0f 90       	pop	r0
    1f66:	cf 91       	pop	r28
    1f68:	df 91       	pop	r29
    1f6a:	08 95       	ret

00001f6c <DIO_enuGetPortVal>:
ES_t DIO_enuGetPortVal(u8 Copy_u8PortId,u8 *Copy_u8Value)
{
    1f6c:	df 93       	push	r29
    1f6e:	cf 93       	push	r28
    1f70:	00 d0       	rcall	.+0      	; 0x1f72 <DIO_enuGetPortVal+0x6>
    1f72:	00 d0       	rcall	.+0      	; 0x1f74 <DIO_enuGetPortVal+0x8>
    1f74:	00 d0       	rcall	.+0      	; 0x1f76 <DIO_enuGetPortVal+0xa>
    1f76:	cd b7       	in	r28, 0x3d	; 61
    1f78:	de b7       	in	r29, 0x3e	; 62
    1f7a:	8a 83       	std	Y+2, r24	; 0x02
    1f7c:	7c 83       	std	Y+4, r23	; 0x04
    1f7e:	6b 83       	std	Y+3, r22	; 0x03
	ES_t Local_enuErrorState = ES_NOK;
    1f80:	81 e0       	ldi	r24, 0x01	; 1
    1f82:	89 83       	std	Y+1, r24	; 0x01

	if(Copy_u8PortId<= DIO_PORTD)
    1f84:	8a 81       	ldd	r24, Y+2	; 0x02
    1f86:	84 30       	cpi	r24, 0x04	; 4
    1f88:	e0 f5       	brcc	.+120    	; 0x2002 <DIO_enuGetPortVal+0x96>
		{
			switch(Copy_u8PortId)
    1f8a:	8a 81       	ldd	r24, Y+2	; 0x02
    1f8c:	28 2f       	mov	r18, r24
    1f8e:	30 e0       	ldi	r19, 0x00	; 0
    1f90:	3e 83       	std	Y+6, r19	; 0x06
    1f92:	2d 83       	std	Y+5, r18	; 0x05
    1f94:	8d 81       	ldd	r24, Y+5	; 0x05
    1f96:	9e 81       	ldd	r25, Y+6	; 0x06
    1f98:	81 30       	cpi	r24, 0x01	; 1
    1f9a:	91 05       	cpc	r25, r1
    1f9c:	e1 f0       	breq	.+56     	; 0x1fd6 <DIO_enuGetPortVal+0x6a>
    1f9e:	2d 81       	ldd	r18, Y+5	; 0x05
    1fa0:	3e 81       	ldd	r19, Y+6	; 0x06
    1fa2:	22 30       	cpi	r18, 0x02	; 2
    1fa4:	31 05       	cpc	r19, r1
    1fa6:	2c f4       	brge	.+10     	; 0x1fb2 <DIO_enuGetPortVal+0x46>
    1fa8:	8d 81       	ldd	r24, Y+5	; 0x05
    1faa:	9e 81       	ldd	r25, Y+6	; 0x06
    1fac:	00 97       	sbiw	r24, 0x00	; 0
    1fae:	61 f0       	breq	.+24     	; 0x1fc8 <DIO_enuGetPortVal+0x5c>
    1fb0:	26 c0       	rjmp	.+76     	; 0x1ffe <DIO_enuGetPortVal+0x92>
    1fb2:	2d 81       	ldd	r18, Y+5	; 0x05
    1fb4:	3e 81       	ldd	r19, Y+6	; 0x06
    1fb6:	22 30       	cpi	r18, 0x02	; 2
    1fb8:	31 05       	cpc	r19, r1
    1fba:	a1 f0       	breq	.+40     	; 0x1fe4 <DIO_enuGetPortVal+0x78>
    1fbc:	8d 81       	ldd	r24, Y+5	; 0x05
    1fbe:	9e 81       	ldd	r25, Y+6	; 0x06
    1fc0:	83 30       	cpi	r24, 0x03	; 3
    1fc2:	91 05       	cpc	r25, r1
    1fc4:	b1 f0       	breq	.+44     	; 0x1ff2 <DIO_enuGetPortVal+0x86>
    1fc6:	1b c0       	rjmp	.+54     	; 0x1ffe <DIO_enuGetPortVal+0x92>
			{
			case DIO_PORTA:
				*Copy_u8Value = PINA;
    1fc8:	e9 e3       	ldi	r30, 0x39	; 57
    1fca:	f0 e0       	ldi	r31, 0x00	; 0
    1fcc:	80 81       	ld	r24, Z
    1fce:	eb 81       	ldd	r30, Y+3	; 0x03
    1fd0:	fc 81       	ldd	r31, Y+4	; 0x04
    1fd2:	80 83       	st	Z, r24
    1fd4:	14 c0       	rjmp	.+40     	; 0x1ffe <DIO_enuGetPortVal+0x92>
				break;
			case DIO_PORTB:
				*Copy_u8Value = PINB;
    1fd6:	e6 e3       	ldi	r30, 0x36	; 54
    1fd8:	f0 e0       	ldi	r31, 0x00	; 0
    1fda:	80 81       	ld	r24, Z
    1fdc:	eb 81       	ldd	r30, Y+3	; 0x03
    1fde:	fc 81       	ldd	r31, Y+4	; 0x04
    1fe0:	80 83       	st	Z, r24
    1fe2:	0d c0       	rjmp	.+26     	; 0x1ffe <DIO_enuGetPortVal+0x92>
				break;
			case DIO_PORTC:
				*Copy_u8Value = PINC;
    1fe4:	e3 e3       	ldi	r30, 0x33	; 51
    1fe6:	f0 e0       	ldi	r31, 0x00	; 0
    1fe8:	80 81       	ld	r24, Z
    1fea:	eb 81       	ldd	r30, Y+3	; 0x03
    1fec:	fc 81       	ldd	r31, Y+4	; 0x04
    1fee:	80 83       	st	Z, r24
    1ff0:	06 c0       	rjmp	.+12     	; 0x1ffe <DIO_enuGetPortVal+0x92>
				break;
			case DIO_PORTD:
				*Copy_u8Value = PIND;
    1ff2:	e0 e3       	ldi	r30, 0x30	; 48
    1ff4:	f0 e0       	ldi	r31, 0x00	; 0
    1ff6:	80 81       	ld	r24, Z
    1ff8:	eb 81       	ldd	r30, Y+3	; 0x03
    1ffa:	fc 81       	ldd	r31, Y+4	; 0x04
    1ffc:	80 83       	st	Z, r24
				break;
			}
			Local_enuErrorState = ES_OK;
    1ffe:	19 82       	std	Y+1, r1	; 0x01
    2000:	02 c0       	rjmp	.+4      	; 0x2006 <DIO_enuGetPortVal+0x9a>
		}
		else
		{
			Local_enuErrorState = ES_Out_Of_Range;
    2002:	83 e0       	ldi	r24, 0x03	; 3
    2004:	89 83       	std	Y+1, r24	; 0x01
			}


	return Local_enuErrorState;
    2006:	89 81       	ldd	r24, Y+1	; 0x01
}
    2008:	26 96       	adiw	r28, 0x06	; 6
    200a:	0f b6       	in	r0, 0x3f	; 63
    200c:	f8 94       	cli
    200e:	de bf       	out	0x3e, r29	; 62
    2010:	0f be       	out	0x3f, r0	; 63
    2012:	cd bf       	out	0x3d, r28	; 61
    2014:	cf 91       	pop	r28
    2016:	df 91       	pop	r29
    2018:	08 95       	ret

0000201a <DIO_enuToggelPort>:
ES_t DIO_enuToggelPort(u8 Copy_u8PortId)
{
    201a:	df 93       	push	r29
    201c:	cf 93       	push	r28
    201e:	00 d0       	rcall	.+0      	; 0x2020 <DIO_enuToggelPort+0x6>
    2020:	00 d0       	rcall	.+0      	; 0x2022 <DIO_enuToggelPort+0x8>
    2022:	cd b7       	in	r28, 0x3d	; 61
    2024:	de b7       	in	r29, 0x3e	; 62
    2026:	8a 83       	std	Y+2, r24	; 0x02
	ES_t Local_enuErrorState = ES_NOK;
    2028:	81 e0       	ldi	r24, 0x01	; 1
    202a:	89 83       	std	Y+1, r24	; 0x01
	if(Copy_u8PortId<= DIO_PORTD)
    202c:	8a 81       	ldd	r24, Y+2	; 0x02
    202e:	84 30       	cpi	r24, 0x04	; 4
    2030:	08 f0       	brcs	.+2      	; 0x2034 <DIO_enuToggelPort+0x1a>
    2032:	40 c0       	rjmp	.+128    	; 0x20b4 <DIO_enuToggelPort+0x9a>
		{
			switch(Copy_u8PortId)
    2034:	8a 81       	ldd	r24, Y+2	; 0x02
    2036:	28 2f       	mov	r18, r24
    2038:	30 e0       	ldi	r19, 0x00	; 0
    203a:	3c 83       	std	Y+4, r19	; 0x04
    203c:	2b 83       	std	Y+3, r18	; 0x03
    203e:	8b 81       	ldd	r24, Y+3	; 0x03
    2040:	9c 81       	ldd	r25, Y+4	; 0x04
    2042:	81 30       	cpi	r24, 0x01	; 1
    2044:	91 05       	cpc	r25, r1
    2046:	e9 f0       	breq	.+58     	; 0x2082 <DIO_enuToggelPort+0x68>
    2048:	2b 81       	ldd	r18, Y+3	; 0x03
    204a:	3c 81       	ldd	r19, Y+4	; 0x04
    204c:	22 30       	cpi	r18, 0x02	; 2
    204e:	31 05       	cpc	r19, r1
    2050:	2c f4       	brge	.+10     	; 0x205c <DIO_enuToggelPort+0x42>
    2052:	8b 81       	ldd	r24, Y+3	; 0x03
    2054:	9c 81       	ldd	r25, Y+4	; 0x04
    2056:	00 97       	sbiw	r24, 0x00	; 0
    2058:	61 f0       	breq	.+24     	; 0x2072 <DIO_enuToggelPort+0x58>
    205a:	2a c0       	rjmp	.+84     	; 0x20b0 <DIO_enuToggelPort+0x96>
    205c:	2b 81       	ldd	r18, Y+3	; 0x03
    205e:	3c 81       	ldd	r19, Y+4	; 0x04
    2060:	22 30       	cpi	r18, 0x02	; 2
    2062:	31 05       	cpc	r19, r1
    2064:	b1 f0       	breq	.+44     	; 0x2092 <DIO_enuToggelPort+0x78>
    2066:	8b 81       	ldd	r24, Y+3	; 0x03
    2068:	9c 81       	ldd	r25, Y+4	; 0x04
    206a:	83 30       	cpi	r24, 0x03	; 3
    206c:	91 05       	cpc	r25, r1
    206e:	c9 f0       	breq	.+50     	; 0x20a2 <DIO_enuToggelPort+0x88>
    2070:	1f c0       	rjmp	.+62     	; 0x20b0 <DIO_enuToggelPort+0x96>
			{
			case DIO_PORTA:
				PORTA = ~PORTA;
    2072:	ab e3       	ldi	r26, 0x3B	; 59
    2074:	b0 e0       	ldi	r27, 0x00	; 0
    2076:	eb e3       	ldi	r30, 0x3B	; 59
    2078:	f0 e0       	ldi	r31, 0x00	; 0
    207a:	80 81       	ld	r24, Z
    207c:	80 95       	com	r24
    207e:	8c 93       	st	X, r24
    2080:	17 c0       	rjmp	.+46     	; 0x20b0 <DIO_enuToggelPort+0x96>
				break;
			case DIO_PORTB:
				PORTB = ~PORTB;
    2082:	a8 e3       	ldi	r26, 0x38	; 56
    2084:	b0 e0       	ldi	r27, 0x00	; 0
    2086:	e8 e3       	ldi	r30, 0x38	; 56
    2088:	f0 e0       	ldi	r31, 0x00	; 0
    208a:	80 81       	ld	r24, Z
    208c:	80 95       	com	r24
    208e:	8c 93       	st	X, r24
    2090:	0f c0       	rjmp	.+30     	; 0x20b0 <DIO_enuToggelPort+0x96>
				break;
			case DIO_PORTC:
				PORTC = ~PORTC;
    2092:	a5 e3       	ldi	r26, 0x35	; 53
    2094:	b0 e0       	ldi	r27, 0x00	; 0
    2096:	e5 e3       	ldi	r30, 0x35	; 53
    2098:	f0 e0       	ldi	r31, 0x00	; 0
    209a:	80 81       	ld	r24, Z
    209c:	80 95       	com	r24
    209e:	8c 93       	st	X, r24
    20a0:	07 c0       	rjmp	.+14     	; 0x20b0 <DIO_enuToggelPort+0x96>
				break;
			case DIO_PORTD:
				PORTD = ~PORTD;
    20a2:	a2 e3       	ldi	r26, 0x32	; 50
    20a4:	b0 e0       	ldi	r27, 0x00	; 0
    20a6:	e2 e3       	ldi	r30, 0x32	; 50
    20a8:	f0 e0       	ldi	r31, 0x00	; 0
    20aa:	80 81       	ld	r24, Z
    20ac:	80 95       	com	r24
    20ae:	8c 93       	st	X, r24
				break;
			}
			Local_enuErrorState = ES_OK;
    20b0:	19 82       	std	Y+1, r1	; 0x01
    20b2:	02 c0       	rjmp	.+4      	; 0x20b8 <DIO_enuToggelPort+0x9e>
		}
		else
		{
			Local_enuErrorState = ES_Out_Of_Range;
    20b4:	83 e0       	ldi	r24, 0x03	; 3
    20b6:	89 83       	std	Y+1, r24	; 0x01
			}



	return Local_enuErrorState;
    20b8:	89 81       	ldd	r24, Y+1	; 0x01
}
    20ba:	0f 90       	pop	r0
    20bc:	0f 90       	pop	r0
    20be:	0f 90       	pop	r0
    20c0:	0f 90       	pop	r0
    20c2:	cf 91       	pop	r28
    20c4:	df 91       	pop	r29
    20c6:	08 95       	ret

000020c8 <main>:
	}
	return 0;
}
#elif code == 1
int main()
{
    20c8:	df 93       	push	r29
    20ca:	cf 93       	push	r28
    20cc:	0f 92       	push	r0
    20ce:	cd b7       	in	r28, 0x3d	; 61
    20d0:	de b7       	in	r29, 0x3e	; 62
	u8 data;

		IIC_enuINIT();
    20d2:	0e 94 36 00 	call	0x6c	; 0x6c <IIC_enuINIT>
			while(1)
			{

				if(ES_OK == IIC_enuCheckMyAddress())
    20d6:	0e 94 70 01 	call	0x2e0	; 0x2e0 <IIC_enuCheckMyAddress>
    20da:	88 23       	and	r24, r24
    20dc:	e1 f7       	brne	.-8      	; 0x20d6 <main+0xe>
				{
					if(ES_OK == IIC_enuReadData(&data) )
    20de:	ce 01       	movw	r24, r28
    20e0:	01 96       	adiw	r24, 0x01	; 1
    20e2:	0e 94 cf 01 	call	0x39e	; 0x39e <IIC_enuReadData>
    20e6:	88 23       	and	r24, r24
    20e8:	29 f4       	brne	.+10     	; 0x20f4 <main+0x2c>
					{
						DDRA = data;
    20ea:	ea e3       	ldi	r30, 0x3A	; 58
    20ec:	f0 e0       	ldi	r31, 0x00	; 0
    20ee:	89 81       	ldd	r24, Y+1	; 0x01
    20f0:	80 83       	st	Z, r24
    20f2:	f1 cf       	rjmp	.-30     	; 0x20d6 <main+0xe>
					}
					else
					{
						DDRC = 0x11;
    20f4:	e4 e3       	ldi	r30, 0x34	; 52
    20f6:	f0 e0       	ldi	r31, 0x00	; 0
    20f8:	81 e1       	ldi	r24, 0x11	; 17
    20fa:	80 83       	st	Z, r24
    20fc:	ec cf       	rjmp	.-40     	; 0x20d6 <main+0xe>

000020fe <_exit>:
    20fe:	f8 94       	cli

00002100 <__stop_program>:
    2100:	ff cf       	rjmp	.-2      	; 0x2100 <__stop_program>
